RocketServo2.asm                                                      Page: 1
/Users/davidflynn/Projects/Rocket-Servo/Firmware RS2 Rev nc/

00001 0000 	;====================================================================================================
00002 0000 	;
00003 0000 	;   Filename:	RocketServo2.asm
00004 0000 	;   Date:	12/20/2025
00005 0000 	;   File Version:	1.0b1
00006 0000 	;
00007 0000 	;    Author:	David M. Flynn
00008 0000 	;    E-Mail:	dflynn.oxfordvue@gmail.com
00009 0000 	;
00010 0000 	;====================================================================================================
00011 0000 	;    RC Servo Activator (2 channel) for high power rocketry uses PIC16F1847
00012 0000 	;
00013 0000 	;    History:
00014 0000 	; 1.0b1   12/20/2025   Copied from RocketServo rev 1.2b1
00015 0000 	;
00016 0000 	;====================================================================================================
00017 0000 	; Options
00018 0000 0001 	HasEnable	EQU	1
00019 0000 0001 	HasBattV	EQU	1	;Set to 0 or 1
00020 0000 0000 	HasServoCurrent	EQU	0
00021 0000 0000 	BP3Hold	EQU	0	;Hold at reverse value
00022 0000 	;====================================================================================================
00023 0000 	; To Do's
00024 0000 	;
00025 0000 	;====================================================================================================
00026 0000 	;====================================================================================================
00027 0000 	; What happens next:
00028 0000 	;
00029 0000 	;   The system LED blinks once per second
00030 0000 	;  Once at power-up:
00031 0000 	;   Blink battery voltage i.e. _ ......... _
00032 0000 	;   Do not arm if <7.0 2S LiPO, fast blink for 10 seconds
00033 0000 	;   Set position to the commanded position for 3 seconds.
00034 0000 	;
00035 0000 	;  Setup mode:
00036 0000 	;   If SW1 is pressed Increment the set value for the control condition.
00037 0000 	;   If SW2 is pressed Decrement the set value for the control condition.
00038 0000 	;
00039 0000 	;   If Control is High (active)
00040 0000 	;      move to set point 1 for 3 seconds
00041 0000 	;   else if Control is Low (Normal, Inactive)
00042 0000 	;      move to set point 2 for 3 seconds
00043 0000 	;
00044 0000 	;   CCP1, CCP2 outputs a 900uS to 2100uS (1800..4200 counts) pulse every 16,000uS
00045 0000 	;
00046 0000 	;   Resolution is 0.5uS
00047 0000 	;
00048 0000 	;  if kInPosShutdown is set servo will power down after 3s
00049 0000 	;
00050 0000 	;====================================================================================================
00051 0000 	;
00052 0000 	;  Pin 1  RA2 		SW1 Inc switch Active Low Input 
00053 0000 	;  Pin 2  RA3 		Enable1 Conductivity Enable Active Low Output	
00054 0000 	;  Pin 3  RA4 		Enable2 Conductivity Enable Active Low Output		
00055 0000 	;  Pin 4  RA5/MCLR*/Vpp (Input only)	Vpp	
00056 0000 	;  Pin 5  VSS (Ground)		Ground
00057 0000 	;  Pin 6  RB0/CCP1		Servo1 Signal Output
00058 0000 	;  Pin 7  RB1		Trigger1 Active Low Input
00059 0000 	;  Pin 8  RB2		Trigger2 Active Low Input
00060 0000 	;  Pin 9  RB3		Servo2LED Active Active Low Output
00061 0000 	;  Pin 10 RB4		Servo1LED Active Active Low Output
00062 0000 	;  Pin 11 RB5		SW2 Dec switch Active Low Input
00063 0000 	;  Pin 12 RB6 ICSPCLK		PGC
00064 0000 	;  Pin 13 RB7 ICSPDAT		PGD
00065 0000 	;  Pin 14 VDD (+5V)		+5V
00066 0000 	;  Pin 15 RA6 		System LED Active Low Output
00067 0000 	;  Pin 16 RA7/CCP2		Servo2 Signal Output
00068 0000 	;  Pin 17 RA0 AN0/Battery (volts-0.5)/21
00069 0000 	;  Pin 18 RA1 AN1/Servo_I
00070 0000 	;
00071 0000 	;====================================================================================================
00072 0000 	;
00073 0000 	;
00074 0000 		list	p=16f1847,r=hex,w=1	; list directive to define processor
00075 0000 	;
00001 0000 		nolist
00002 0000 	;
00003 0000 	;==========================================================================
00004 0000 	;  MPASM PIC16F1847 processor include
00005 0000 	; 
00006 0000 	;  (c) Copyright 1999-2013 Microchip Technology, All rights reserved
00007 0000 	;  Modified by DMF 11/16/2013
00008 0000 	;==========================================================================
00009 0000 	;
01163 0000 		NOLIST
01164 0000 	;
00078 0000 		list
00079 0000 	;
00080 8007 EFA4 		__CONFIG _CONFIG1,_FOSC_INTOSC & _WDTE_OFF & _MCLRE_OFF & _IESO_OFF
00081 0000 	;
00082 0000 	;
00083 0000 	; INTOSC oscillator: I/O function on CLKIN pin
00084 0000 	; WDT disabled
00085 0000 	; PWRT disabled
00086 0000 	; MCLR/VPP pin function is digital input
00087 0000 	; Program memory code protection is disabled
00088 0000 	; Data memory code protection is disabled
00089 0000 	; Brown-out Reset enabled
00090 0000 	; CLKOUT function is disabled. I/O or oscillator function on the CLKOUT pin
RocketServo2.asm                                                      Page: 2
/Users/davidflynn/Projects/Rocket-Servo/Firmware RS2 Rev nc/

00091 0000 	; Internal/External Switchover mode is disabled
00092 0000 	; Fail-Safe Clock Monitor is enabled
00093 0000 	;
00094 8008 DFFF 		__CONFIG _CONFIG2,_WRT_OFF & _PLLEN_ON & _LVP_OFF
00095 0000 	;
00096 0000 	; Write protection off
00097 0000 	; 4x PLL Enabled
00098 0000 	; Stack Overflow or Underflow will cause a Reset
00099 0000 	; Brown-out Reset Voltage (Vbor), low trip point selected.
00100 0000 	; Low-voltage programming disabled
00101 0000 	;
00102 0000 	; '__CONFIG' directive is used to embed configuration data within .asm file.
00103 0000 	; The lables following the directive are located in the respective .inc file.
00104 0000 	; See respective data sheet for additional information on configuration word.
00105 0000 	;
00106 0000 		constant	oldCode=0
00107 0000 		constant	useRS232=0
00108 0000 		constant	UseEEParams=1
00109 0000 	;
00110 0000 0003 	#Define	_C	STATUS,C
00111 0000 0003 	#Define	_Z	STATUS,Z
00112 0000 	;
00113 0000 	; 0.5uS res counter from 8MHz OSC
00114 0000 0009 	CCPnCON_Clr	EQU	b'00001001'	;Clear output on match
00115 0000 0008 	CCPnCON_Set	EQU	b'00001000'	;Set output on match
00116 0000 000A 	CCPnCON_Int	EQU	b'00001010'
00117 0000 	;
00118 0000 00E8 	MinBattVolts	EQU	d'232'	;V/35.8 * 204.8c/v = 6.5V
00119 0000 	;
00120 0000 012C 	ActivationTime	EQU	d'300'	;3 seconds
00121 0000 07FF 	kOffsetCtrValue	EQU	d'2047'
00122 0000 0708 	kMinPulseWidth	EQU	d'1800'	;900uS
00123 0000 0BB8 	kMidPulseWidth	EQU	d'3000'	;1500uS
00124 0000 1068 	kMaxPulseWidth	EQU	d'4200'	;2100uS
00125 0000 		if BP3Hold
00129 0000 		else
00130 0000 0E10 	kDefaultPosition1	EQU	d'3600'	;1800uS
00131 0000 0898 	kDefaultPosition2	EQU	d'2200'	;1100uS
00132 0000 0000 	HoldOpen	EQU	0
00133 0000 		endif
00134 0000 7D00 	kServoDwellTime	EQU	d'32000'	;16mS
00135 0000 0022 	kInPosShutdown	EQU	b'00100010'	;b'00100010' enabled 0x00 disabled
00136 0000 	;
00137 0000 	;====================================================================================================
00140 0000 		nolist
00141 0000 	;
00142 0000 	;    Port A bits
00143 0000 0067 	PortADDRBits	EQU	b'01100111'
00144 0000 000C 	#Define	RA0_In	PORTA,0	;AN0/Battery (volts-0.5)/21
00145 0000 000C 	#Define	RA1_In	PORTA,1	;AN1/Servo_I
00146 0000 000C 	#Define	IncBtnBit	PORTA,2	;SW1 Inc switch Active Low Input 
00147 0000 010C 	#Define	ContEnable1	LATA,3	;Enable1 Conductivity Enable Active Low Output
00148 0000 010C 	#Define	ContEnable2	LATA,4	;Enable2 Conductivity Enable Active Low Output
00149 0000 000C 	#Define	RA5_In	PORTA,5	; Vpp only
00150 0000 010C 	#Define	SystemLED	LATA,6	;Output: 0=LED ON
00151 0000 008C 	#Define	SysLEDTrisBit	TRISA,6
00152 0000 000C 	#Define	RA7_In	PORTA,7	;CCP2, Servo2
00153 0000 	;
00154 0000 0000 	PortAValue	EQU	b'00000000'
00155 0000 	;
00156 0000 	;    Port B bits
00157 0000 00FE 	PortBDDRBits	EQU	b'11111110'
00158 0000 000D 	#Define	RB0_In	PORTB,0	;CCP1, Servo1
00159 0000 000D 	#Define	S1CmdInputBit	PORTB,1	;Trigger1 Active Low Input
00160 0000 000D 	#Define	S2CmdInputBit	PORTB,2	;Trigger2 Active Low Input
00161 0000 000D 	#Define	Servo2LEDBit	PORTB,3	;Servo2LED Active Active Low Output
00162 0000 008D 	#Define	Servo2LEDTrisBit	TRISB,3
00163 0000 000D 	#Define	Servo1LEDBit	PORTB,4	;Servo1LED Active Active Low Output
00164 0000 008D 	#Define	Servo1LEDTrisBit	TRISB,4
00165 0000 000D 	#Define	DecBtnBit	PORTB,5	;SW2 Dec switch Active Low Input
00166 0000 000D 	#Define	RB6_In	PORTB,6	;ICSPCLK
00167 0000 000D 	#Define	RB6_In	PORTB,6	;ICSPCLK
00168 0000 	;
00169 0000 0000 	PortBValue	EQU	b'00000000'
00170 0000 	;
00171 0000 	;
00172 0000 	;====================================================================================================
00173 0000 	;====================================================================================================
00174 0000 	;
00175 0000 	;Constants
00176 0000 00FF 	All_In	EQU	0xFF
00177 0000 0000 	All_Out	EQU	0x00
00178 0000 	;
00179 0000 0064 	LEDTIME	EQU	d'100'	;1.00 seconds
00180 0000 000A 	LEDErrorTime	EQU	d'10'
00181 0000 0014 	LEDFlashTime	EQU	d'20'
00182 0000 	;
00183 0000 0001 	T1CON_Val	EQU	b'00000001'	;Fosc=8MHz, PreScale=1,Fosc/4,Timer ON
00184 0000 	;T1CON_Val	EQU	b'00100001'	;Fosc=32MHz, PreScale=4,Fosc/4,Timer ON
00185 0000 	;
00186 0000 0072 	OSCCON_Value	EQU	b'01110010'	;8MHz
00187 0000 	;OSCCON_Value	EQU	b'11110000'	;32MHz
00188 0000 	;
00189 0000 004E 	T2CON_Value	EQU	b'01001110'	;T2 On, /16 pre, /10 post
00190 0000 	;T2CON_Value	EQU	b'01001111'	;T2 On, /64 pre, /10 post
00191 0000 007D 	PR2_Value	EQU	.125
00192 0000 	;
00193 0000 	;
00194 0000 0000 	CCP1CON_Value	EQU	0x00	;CCP1 off
RocketServo2.asm                                                      Page: 3
/Users/davidflynn/Projects/Rocket-Servo/Firmware RS2 Rev nc/

00195 0000 	;
00196 0000 	;================================================================================================
00197 0000 	;***** VARIABLE DEFINITIONS
00198 0000 	; there are 1024 bytes of ram, Bank0 0x20..0x7F, Bank1 0xA0..0xEF, ....
00199 0000 	; there are 256 bytes of EEPROM starting at 0x00 the EEPROM is not mapped into memory but
00200 0000 	;  accessed through the EEADR and EEDATA registers
00201 0000 	;================================================================================================
00202 0000 	;  Bank0 Ram 020h-06Fh 80 Bytes
00203 0000 	;
00204 0000 		cblock	0x20
00205 0000 	;
00206 0000 0020 M		ISR_Temp		;scratch mem
00207 0000 0021 M		LED_Time
00208 0000 0022 M		LED2_PeriodTime		;Usually 100=1s, Set to 1 for constant ON
00209 0000 0023 M		LED2_FlashTime		;Set to 1 for constant ON, otherwise LEDFlashTime
00210 0000 0024 M		LED3_PeriodTime
00211 0000 0025 M		LED3_FlashTime		;Set to 1 for constant ON, otherwise LEDFlashTime
00212 0000 0026 M		LED_Ticks		;Timer tick count
00213 0000 0027 M		LED2_Ticks
00214 0000 0028 M		LED3_Ticks
00215 0000 0029 M		LED_Blinks		;nBlinks, 0xFF=system blink, 0=Off
00216 0000 002A M		LED2_Flashes		;nFlashes 0..3, 0=Off
00217 0000 002B M		LED2_FlashCount
00218 0000 002C M		LED3_Flashes		;nFlashes 0..3, 0=Off
00219 0000 002D M		LED3_FlashCount
00220 0000      M	;
00221 0000      M	;
00222 0000 002E M		EEAddrTemp		;EEProm address to read or write
00223 0000 002F M		EEDataTemp		;Data to be writen to EEProm
00224 0000      M	;
00225 0000      M	;
00226 0000 0030 M		Timer1Lo		;1st 16 bit timer
00227 0000 0031 M		Timer1Hi		; 1 sec delay, local loop
00228 0000 0032 M		Timer2Lo		;2nd 16 bit timer
00229 0000 0033 M		Timer2Hi		; Servo 1 active timer
00230 0000 0034 M		Timer3Lo		;3rd 16 bit timer
00231 0000 0035 M		Timer3Hi		; Servo 1 Activation timer
00232 0000 0036 M		Timer4Lo		;4th 16 bit timer
00233 0000 0037 M		Timer4Hi		; debounce timer and power up delay timer
00234 0000 0038 M		Timer5Lo		;5th 16 bit timer
00235 0000 0039 M		Timer5Hi		; Servo 2 active timer
00236 0000 003A M		Timer6Lo		;6th 16 bit timer
00237 0000 003B M		Timer6Hi		; Servo 2 Activation timer
00238 0000      M	;
00239 0000 003C M		State		;State 0..n, Startup LED sequence and main state
00240 0000 003D M		State2		;State 0..n, Servo current testing
00241 0000      M	;
00242 0000 003E M		S1Dest:2
00243 0000 0040 M		S1CurPos:2
00244 0000 0042 M		S2Dest:2
00245 0000 0044 M		S2CurPos:2
00246 0000      M	;
00247 0000 0046 M		BtnFlags
00248 0000 0047 M		ServoFlags
00249 0000      M	;
00250 0000 0048 M		S1Position1:2		;Servo1 rest
00251 0000 004A M		S1Position2:2		;Servo1 Triggered
00252 0000 004C M		S2Position1:2		;Servo2 rest
00253 0000 004E M		S2Position2:2		;Servo2 Triggered
00254 0000 0050 M		SysFlags
00255 0000      M	;
00256 0000 0051 M		S1CmdDebounce
00257 0000 0052 M		S2CmdDebounce
00258 0000      M	;
00259 0000      M		endc
00260 0000      M	;	
00261 0000 0032 M	Servo1MoveTimerLo	EQU	Timer2Lo
00262 0000 0033 M	Servo1MoveTimerHi	EQU	Timer2Hi
00263 0000 0038 M	Servo2MoveTimerLo	EQU	Timer5Lo
00264 0000 0039 M	Servo2MoveTimerHi	EQU	Timer5Hi
00265 0000 0034 M	Servo1ActiveTimerLo	EQU	Timer3Lo
00266 0000 0035 M	Servo1ActiveTimerHi	EQU	Timer3Hi
00267 0000 003A M	Servo2ActiveTimerLo	EQU	Timer6Lo
00268 0000 003B M	Servo2ActiveTimerHi	EQU	Timer6Hi
00269 0000      M	;
00270 0000      M	;
00271 0000      M	; BtnFlags
00272 0000 0046 M	#Define	IncBtnFlag	BtnFlags,0
00273 0000 0046 M	#Define	DecBtnFlag	BtnFlags,1
00274 0000 0046 M	#Define	S1Active	BtnFlags,2	;Last servo activated
00275 0000 0046 M	#Define	S2Active	BtnFlags,3	; used for buttons
00276 0000 0046 M	#Define	NewSWData	BtnFlags,4
00277 0000 0046 M	#Define	LED2Flag	BtnFlags,5
00278 0000 0046 M	#Define	LED3Flag	BtnFlags,6
00279 0000 0046 M	#Define	DataChangedFlag	BtnFlags,7
00280 0000      M	;
00281 0000      M	; ServoFlags bits
00282 0000 0047 M	#Define	S1Found	ServoFlags,0	;Detected w/ current monitor
00283 0000 0047 M	#Define	S2Found	ServoFlags,1
00284 0000 0047 M	#Define	S1CurPosIsDest	ServoFlags,2
00285 0000 0047 M	#Define	S2CurPosIsDest	ServoFlags,3
00286 0000      M	;
00287 0000      M	; SysFlags
00288 0000 0050 M	#Define	S1PulseSent	SysFlags,0
00289 0000 0050 M	#Define	S1InPosShutdown	SysFlags,1
00290 0000 0050 M	#Define	S1InPosition	SysFlags,2
00291 0000 0050 M	#Define	BattV_OK	SysFlags,3
00292 0000 0050 M	#Define	S2PulseSent	SysFlags,4
00293 0000 0050 M	#Define	S2InPosShutdown	SysFlags,5
RocketServo2.asm                                                      Page: 4
/Users/davidflynn/Projects/Rocket-Servo/Firmware RS2 Rev nc/

00294 0000 0050 M	#Define	S2InPosition	SysFlags,6
00295 0000      M	;
00296 0000 0048 M	#Define	FirstRAMParam	S1Position1
00297 0000 0050 M	#Define	LastRAMParam	SysFlags
00298 0000      M	;
00299 0000      M	;================================================================================================
00300 0000      M	;  Bank1 Ram 0A0h-0EFh 80 Bytes
00301 0000      M	;
00302 0000      M		cblock	0x0A0
00303 0000      M	; Raw AN Results
00304 0000 00A0 M		AN0_RawL
00305 0000 00A1 M		AN0_RawH
00306 0000 00A2 M		AN1_RawL
00307 0000 00A3 M		AN1_RawH
00308 0000      M	; Data for main thread, protected by semaphores
00309 0000 00A4 M		AN0_DataL
00310 0000 00A5 M		AN0_DataH
00311 0000 00A6 M		AN1_DataL
00312 0000 00A7 M		AN1_DataH
00313 0000      M	;
00314 0000 00A8 M		IDleCurrent:2
00315 0000 00AA M		PeakCurrent:2
00316 0000      M	;
00317 0000 00AC M		AN_Semaphores
00318 0000 00AD M		AN_NewRawDataFlags
00319 0000 00AE M		AN_NewDataFlags
00320 0000      M	;
00321 0000      M		endc
00322 0000      M	;
00323 0000      M	; AN_Semaphores bits
00324 0000 00AC M	#Define	AN0_Semaphore	AN_Semaphores,0	
00325 0000 00AC M	#Define	AN1_Semaphore	AN_Semaphores,1
00326 0000      M	; AN_NewRawDataFlags bits
00327 0000 00AD M	#Define	AN0_NewRawData	AN_NewRawDataFlags,0
00328 0000 00AD M	#Define	AN1_NewRawData	AN_NewRawDataFlags,1
00329 0000      M	; AN_NewDataFlags bits
00330 0000 00AE M	#Define	AN0_NewData	AN_NewDataFlags,0
00331 0000 00AE M	#Define	AN1_NewData	AN_NewDataFlags,1
00332 0000      M	;
00333 0000      M	;================================================================================================
00334 0000      M	;  Bank5 Ram 2A0h-2EFh 80 Bytes (CCP1 and CCP2 are in this bank)
00335 0000      M		cblock	0x2A0
00336 0000      M	;
00337 0000 02A0 M		S1SigOutTime
00338 0000 02A1 M		S1SigOutTimeH
00339 0000 02A2 M		S1Flags
00340 0000 02A3 M		S1CalcdDwell
00341 0000 02A4 M		S1CalcdDwellH
00342 0000      M	;
00343 0000 02A5 M		S2SigOutTime
00344 0000 02A6 M		S2SigOutTimeH
00345 0000 02A7 M		S2Flags
00346 0000 02A8 M		S2CalcdDwell
00347 0000 02A9 M		S2CalcdDwellH
00348 0000      M	;
00349 0000      M	;
00350 0000      M		endc
00351 0000      M	;
00352 0000      M	; S1Flags bits
00353 0000 02A2 M	#Define	S1ServoOff	S1Flags,4
00354 0000 02A2 M	#Define	S1SMRevFlag	S1Flags,5
00355 0000      M	;
00356 0000      M	; S2Flags bits
00357 0000 02A7 M	#Define	S2ServoOff	S2Flags,4
00358 0000 02A7 M	#Define	S2SMRevFlag	S2Flags,5
00359 0000      M	;
00360 0000      M	;
00361 0000 012C M	ServoMoveTime	EQU	.300	;time servo is powered when CMD changes
00362 0000      M	;
00363 0000 0002 M	BtnChangeRate	EQU	0x02	;change by 1uS per 0.05 seconds
00364 0000 0040 M	SlewChangeRate	EQU	0x40	;change by 8uS per 0.01 seconds
00365 0000      M	;
00366 0000      M	;=======================================================================================================
00367 0000      M	;  Common Ram 70-7F same for all banks
00368 0000      M	;      except for ISR_W_Temp these are used for paramiter passing and temp vars
00369 0000      M	;=======================================================================================================
00370 0000      M	;
00371 0000      M		cblock	0x70
00372 0000 0070 M		Param70
00373 0000 0071 M		Param71
00374 0000 0072 M		Param72
00375 0000 0073 M		Param73
00376 0000 0074 M		Param74
00377 0000 0075 M		Param75
00378 0000 0076 M		Param76
00379 0000 0077 M		Param77
00380 0000 0078 M		Param78
00381 0000 0079 M		Param79
00382 0000 007A M		Param7A
00383 0000 007B M		Param7B
00384 0000 007C M		Param7C
00385 0000 007D M		Param7D
00386 0000 007E M		Param7E
00387 0000 007F M		Param7F
00388 0000      M		endc
00389 0000      M	;
00390 0000      M	;=========================================================================================
00391 0000      M	;Conditionals
00392 0000 0080 M	HasISR	EQU	0x80	;used to enable interupts 0x80=true 0x00=false
RocketServo2.asm                                                      Page: 5
/Users/davidflynn/Projects/Rocket-Servo/Firmware RS2 Rev nc/

00393 0000      M	;
00394 0000      M	;=========================================================================================
00395 0000      M	;==============================================================================================
00396 0000      M	; ID Locations
00397 0000      M		__idlocs	0x10B1
00398 0000      M	;
00399 0000      M	;==============================================================================================
00400 0000      M	; EEPROM locations (NV-RAM) 0x00..0x7F (offsets)
00401 0000      M		org	0xF000
00402 F000      M	; Servo 1 initial values
00403 F000 0010      M		de	LOW kDefaultPosition1	;nvPosition1Lo
00404 F001 000E      M		de	HIGH kDefaultPosition1
00405 F002 0098      M		de	LOW kDefaultPosition2
00406 F003 0008      M		de	HIGH kDefaultPosition2
00407 F004      M	; Servo 2 initial values
00408 F004 0010      M		de	LOW kDefaultPosition1	;nvPosition1Lo
00409 F005 000E      M		de	HIGH kDefaultPosition1
00410 F006 0098      M		de	LOW kDefaultPosition2
00411 F007 0008      M		de	HIGH kDefaultPosition2
00412 F008      M	;
00413 F008 0022      M		de	kInPosShutdown	;nvSysFlags
00414 F009      M	;
00415 F009      M		cblock	0x00
00416 F009 0000 M		nvPosition1Lo
00417 F009 0001 M		nvPosition1Hi
00418 F009 0002 M		nvPosition2Lo
00419 F009 0003 M		nvPosition2Hi
00420 F009 0004 M		nvPosition3Lo
00421 F009 0005 M		nvPosition3Hi
00422 F009 0006 M		nvPosition4Lo
00423 F009 0007 M		nvPosition4Hi
00424 F009      M	;
00425 F009 0008 M		nvSysFlags
00426 F009      M		endc
00427 F009      M	;
00428 F009 0000 M	#Define	nvFirstParamByte	nvPosition1Lo
00429 F009 0008 M	#Define	nvLastParamByte	nvSysFlags
00430 F009      M	;
00431 F009      M	;
00432 F009      M	;==============================================================================================
00433 F009      M	;============================================================================================
00434 F009      M	;
00435 F009      M	;
00436 F009      M		ORG	0x000	; processor reset vector
00437 0000 0183      M		CLRF	STATUS
00438 0001 018A      M		CLRF	PCLATH
00439 0002 28B8      M	  	goto	start	; go to beginning of program
00440 0003      M	;
00441 0003      M	;===============================================================================================
00442 0003      M	; Interupt Service Routine
00443 0003      M	;
00444 0003      M	; we loop through the interupt service routing every 0.01 seconds
00445 0003      M	;
00446 0003      M	;
00447 0003      M		ORG	0x004	; interrupt vector location
00448 0004 018A      M		CLRF	PCLATH
00449 0005 0020      M		movlb	0	; bank0
00450 0006      M	;
00451 0006 1C91      M		btfss	PIR1,TMR2IF
00452 0007 2858      M		goto	IRQ_2
00453 0008 1091      M		bcf	PIR1,TMR2IF	; reset interupt flag bit
00454 0009      M	;
00455 0009      M	;Decrement timers until they are zero
00456 0009      M	;
00457 0009 0185      M		CLRF	FSR0H
00458 000A 2501      M		call	DecTimer1	;if timer 1 is not zero decrement
00459 000B 24FF      M		call	DecTimer2
00460 000C 24FD      M		call	DecTimer3
00461 000D 24FB      M		call	DecTimer4
00462 000E 3039      M		movlw	Timer5Hi
00463 000F 2502      M		call	DecTimer
00464 0010 303B      M		movlw	Timer6Hi
00465 0011 2502      M		call	DecTimer
00466 0012      M	;
00467 0012      M	;-----------------------------------------------------------------
00468 0012      M	; blink LEDs
00469 0012 0021      M		movlb                  1                      ;bank 1
00470 0013 170C      M		BSF	SysLEDTrisBit	;LED off
00471 0014 160D      M		BSF	Servo1LEDTrisBit	;LED2 off
00472 0015 158D      M		BSF	Servo2LEDTrisBit	;LED3 off
00473 0016      M	;
00474 0016 0020      M		movlb	0	;bank 0
00475 0017 1046      M		BCF	IncBtnFlag
00476 0018 1D0C      M		BTFSS	IncBtnBit
00477 0019 1446      M		BSF	IncBtnFlag
00478 001A      M	;
00479 001A 10C6      M		BCF	DecBtnFlag
00480 001B 1E8D      M		BTFSS	DecBtnBit
00481 001C 14C6      M		BSF	DecBtnFlag
00482 001D      M	;
00483 001D 1646      M		bsf	NewSWData	;New data every 0.01s
00484 001E      M	;
00485 001E 0BA6      M	SystemBlink_1	DECFSZ	LED_Ticks,F	;Time to blink?
00486 001F 320B      M		bra	SystemBlink_end	; no
00487 0020      M	;
00488 0020 0821      M		MOVF	LED_Time,W
00489 0021 00A6      M		movwf	LED_Ticks
00490 0022      M	;
00491 0022 08A9      M		movf	LED_Blinks,F	;nBlinks, 0xFF=system blink, 0=Off
RocketServo2.asm                                                      Page: 6
/Users/davidflynn/Projects/Rocket-Servo/Firmware RS2 Rev nc/

00492 0023 		SKPNZ		;LED_Blinks=0?
00492 0023 1903      M		BTFSC	STATUS,Z		BTFSC	STATUS,Z
00493 0024 3206 		BRA	SystemBlink_end	; Yes, do nothing
00494 0025 0F29 		incfsz	LED_Blinks,W	;LED_Blinks=0xFF
00495 0026 3201 		BRA	SystemBlink_Blinking	; No
00496 0027 3201 		BRA	SystemBlink_on	; Yes
00497 0028 	;
00498 0028 03A9 	SystemBlink_Blinking	decf	LED_Blinks,F
00499 0029 	;
00500 0029 0021 	SystemBlink_on	movlb                  1                      ;bank 1
00501 002A 130C 		BCF	SysLEDTrisBit	;LED on
00502 002B 0020 	SystemBlink_end	movlb	0                      ;bank 0
00503 002C 	;
00504 002C 	;--------------
00505 002C 	; Handle LED2
00506 002C 	; Flash LEDn_Flashes (0..3) 
00507 002C 	; For N flashes per period set LEDn_Flashes=N, LEDn_PeriodTime=LEDTIME, LEDn_FlashTime=LEDFlashTime
00508 002C 	; For continious ON set LEDn_PeriodTime=1, LEDn_FlashTime=1, LEDn_Flashes=1
00509 002C 	;
00510 002C 08A7 		movf	LED2_Ticks,F
00511 002D 		SKPNZ		;LED2_Ticks=0?
00511 002D 1903      M		BTFSC	STATUS,Z		BTFSC	STATUS,Z
00512 002E 3202 		bra	LED2_DoUpdate	; Yes
00513 002F 0BA7 		decfsz	LED2_Ticks,F	;Time to flash?
00514 0030 3210 		bra	IRQ_LED2_End	; No, Leave LED off
00515 0031 	;
00516 0031 0822 	LED2_DoUpdate	movf	LED2_PeriodTime,W	;default time in case LED2_Flashes=0
00517 0032 00A7 		movwf	LED2_Ticks
00518 0033 	;
00519 0033 082A 		movf	LED2_Flashes,W
00520 0034 		SKPNZ		;Any flashes?
00520 0034 1903      M		BTFSC	STATUS,Z		BTFSC	STATUS,Z
00521 0035 320B 		bra	IRQ_LED2_End	; No, leave LED off
00522 0036 	;
00523 0036 	; Set time until next flash
00524 0036 	; if LED2_FlashCount>0 then LED2_FlashCount=LED2_FlashCount-1, LED2_Ticks=LED2_FlashTime, LED=ON
00525 0036 	;	else LED2_FlashCount=LED2_Flashes, LED=OFF
00526 0036 	;
00527 0036 08AB 		movf	LED2_FlashCount,F
00528 0037 		SKPZ		;LED2_FlashCount=0?
00528 0037 1D03      M		BTFSS	STATUS,Z		BTFSS	STATUS,Z
00529 0038 3203 		bra	LED2_ContinueFlashes
00530 0039 	;
00531 0039 082A 		movf	LED2_Flashes,W
00532 003A 00AB 		movwf	LED2_FlashCount
00533 003B 3205 		bra	IRQ_LED2_End	
00534 003C 	;
00535 003C 03AB 	LED2_ContinueFlashes	decf	LED2_FlashCount,F
00536 003D 0823 		movf	LED2_FlashTime,W
00537 003E 00A7 		movwf	LED2_Ticks
00538 003F 	;
00539 003F 0021 	IRQ_LED2_ON	movlb                  1                      ;bank 1
00540 0040 120D 		BCF	Servo1LEDTrisBit	;LED ON
00541 0041 	;
00542 0041 0020 	IRQ_LED2_End	movlb	0
00543 0042 	;
00544 0042 	;-------------
00545 0042 	; Handle LED3
00546 0042 	; Flash LEDn_Flashes (0..3) 
00547 0042 	; For N flashes per period set LEDn_Flashes=N, LEDn_PeriodTime=LEDTIME, LEDn_FlashTime=LEDFlashTime
00548 0042 	; For continious ON set LEDn_PeriodTime=1, LEDn_FlashTime=1, LEDn_Flashes=1
00549 0042 	;
00550 0042 08A8 		movf	LED3_Ticks,F
00551 0043 		SKPNZ		;LED3_Ticks=0?
00551 0043 1903      M		BTFSC	STATUS,Z		BTFSC	STATUS,Z
00552 0044 3202 		bra	LED3_DoUpdate	; Yes
00553 0045 0BA8 		decfsz	LED3_Ticks,F	;Time to flash?
00554 0046 3210 		bra	IRQ_LED3_End	; No, Leave LED off
00555 0047 	;
00556 0047 0824 	LED3_DoUpdate	movf	LED3_PeriodTime,W	;default time in case LED3_Flashes=0
00557 0048 00A8 		movwf	LED3_Ticks
00558 0049 	;
00559 0049 082C 		movf	LED3_Flashes,W
00560 004A 		SKPNZ		;Any flashes?
00560 004A 1903      M		BTFSC	STATUS,Z		BTFSC	STATUS,Z
00561 004B 320B 		bra	IRQ_LED3_End	; No, leave LED off
00562 004C 	;
00563 004C 	; Set time until next flash
00564 004C 	;
00565 004C 	; Set time until next flash
00566 004C 	; if LED3_FlashCount>0 then LED3_FlashCount=LED3_FlashCount-1, LED3_Ticks=LED3_FlashTime, LED=ON
00567 004C 	;	else LED3_FlashCount=LED3_Flashes, LED=OFF
00568 004C 	;
00569 004C 08AD 		movf	LED3_FlashCount,F
00570 004D 		SKPZ		;LED3_FlashCount=0?
00570 004D 1D03      M		BTFSS	STATUS,Z		BTFSS	STATUS,Z
00571 004E 3203 		bra	LED3_ContinueFlashes
00572 004F 	;
00573 004F 082C 		movf	LED3_Flashes,W
00574 0050 00AD 		movwf	LED3_FlashCount
00575 0051 3205 		bra	IRQ_LED3_End	
00576 0052 	;
00577 0052 03AD 	LED3_ContinueFlashes	decf	LED3_FlashCount,F
00578 0053 0825 		movf	LED3_FlashTime,W
00579 0054 00A8 		movwf	LED3_Ticks
00580 0055 	;
00581 0055 0021 	IRQ_LED3_ON	movlb                  1                      ;bank 1
00582 0056 118D 		BCF	Servo2LEDTrisBit	;LED ON
00583 0057 	;
RocketServo2.asm                                                      Page: 7
/Users/davidflynn/Projects/Rocket-Servo/Firmware RS2 Rev nc/

00584 0057 0020 	IRQ_LED3_End	movlb	0
00585 0058 	IRQ_LED3_End	movlb	0
00586 0058 	;-----------------------------------------------------------------
00587 0058 	;
00588 0058 	IRQ_2:
00589 0058 0020 		movlb	0
00590 0059 1B11 		btfsc	PIR1,ADIF
00591 005A 2BFD 		goto	IRQ_ADC
00592 005B 	IRQ_ADC_Return:
00593 005B 	;
00594 005B 	;==================================================================================
00595 005B 	;
00596 005B 	; Handle CCP1 Interupt Flag, Enter w/ bank 0 selected
00597 005B 	;
00598 005B 0020 		movlb	0	;bank 0
00599 005C 1D11 		BTFSS	PIR1,CCP1IF
00600 005D 322B 		bra	IRQ_Servo1_End
00601 005E 	;
00602 005E 1450 		BSF	S1PulseSent
00603 005F 0025 		movlb	0x05                   ;Bank 5
00604 0060 1E22 		BTFSS	S1ServoOff	;Are we sending a pulse?
00605 0061 3202 		bra	IRQ_Servo1_1	; Yes
00606 0062 	;
00607 0062 	;Oops, how did we get here???
00608 0062 0193 		CLRF	CCP1CON
00609 0063 3223 		bra	IRQ_Servo1_X
00610 0064 	;
00611 0064 1813 	IRQ_Servo1_1	BTFSC	CCP1CON,CCP1M0	;Set output on match?
00612 0065 3215 		bra	IRQ_Servo1_OL	; No
00613 0066 	; An output just went high
00614 0066 	;
00615 0066 0820 		MOVF	S1SigOutTime,W	;Put the pulse into the CCP reg.
00616 0067 0791 		ADDWF	CCPR1L,F
00617 0068 0821 		MOVF	S1SigOutTime+1,W
00618 0069 3D92 		ADDWFC	CCPR1H,F
00619 006A 0020 		movlb	0	;Bank 0
00620 006B 300A 		movlw	CCPnCON_Int	;default to do nothing
00621 006C 1CD0 		btfss	S1InPosShutdown
00622 006D 3009 		MOVLW	CCPnCON_Clr	;Clear output on match
00623 006E 1D50 		btfss	S1InPosition
00624 006F 3009 		MOVLW	CCPnCON_Clr	;Clear output on match
00625 0070 0025 		movlb	5	;Bank 5
00626 0071 0093 		MOVWF	CCP1CON	;CCP1 clr on match
00627 0072 	;Calculate dwell time
00628 0072 3000 		MOVLW	LOW kServoDwellTime
00629 0073 00A3 		MOVWF	S1CalcdDwell
00630 0074 307D 		MOVLW	HIGH kServoDwellTime
00631 0075 00A4 		MOVWF	S1CalcdDwellH
00632 0076 0820 		MOVF	S1SigOutTime,W
00633 0077 02A3 		SUBWF	S1CalcdDwell,F
00634 0078 0821 		MOVF	S1SigOutTime+1,W
00635 0079 3BA4 		SUBWFB	S1CalcdDwellH,F
00636 007A 320C 		bra	IRQ_Servo1_X
00637 007B 	;
00638 007B 	; output went low so this cycle is done
00639 007B 3000 	IRQ_Servo1_OL	MOVLW	LOW kServoDwellTime
00640 007C 0791 		ADDWF	CCPR1L,F
00641 007D 307D 		MOVLW	HIGH kServoDwellTime
00642 007E 3D92 		ADDWFC	CCPR1H,F
00643 007F 	;
00644 007F 0020 		movlb	0	;Bank 0
00645 0080 300A 		movlw	CCPnCON_Int	;default to do nothing
00646 0081 1CD0 		btfss	S1InPosShutdown
00647 0082 3008 		MOVLW	CCPnCON_Set	;Set output on match
00648 0083 1D50 		btfss	S1InPosition
00649 0084 3008 		MOVLW	CCPnCON_Set	;Set output on match
00650 0085 0025 		movlb	5	;Bank 5
00651 0086 0093 		MOVWF	CCP1CON	;Idle output low
00652 0087 	;
00653 0087 0020 	IRQ_Servo1_X	movlb	0x00                   ;Bank 0
00654 0088 1111 		BCF	PIR1,CCP1IF
00655 0089 	IRQ_Servo1_End:
00656 0089 	;
00657 0089 	;--------------------------------------------------------------------
00658 0089 	;
00659 0089 	; Handle CCP2 Interupt Flag, Enter w/ bank 0 selected
00660 0089 	;
00661 0089 0020 		movlb	0	;bank 0
00662 008A 1C12 		BTFSS	PIR2,CCP2IF
00663 008B 322B 		bra	IRQ_Servo2_End
00664 008C 	;
00665 008C 1650 		BSF	S2PulseSent
00666 008D 0025 		movlb	0x05                   ;Bank 5
00667 008E 1E27 		BTFSS	S2ServoOff	;Are we sending a pulse?
00668 008F 3202 		bra	IRQ_Servo2_1	; Yes
00669 0090 	;
00670 0090 	;Oops, how did we get here???
00671 0090 019A 		CLRF	CCP2CON
00672 0091 3223 		bra	IRQ_Servo2_X
00673 0092 	;
00674 0092 181A 	IRQ_Servo2_1	BTFSC	CCP2CON,CCP2M0	;Set output on match?
00675 0093 3215 		bra	IRQ_Servo2_OL	; No
00676 0094 	; An output just went high
00677 0094 	;
00678 0094 0825 		MOVF	S2SigOutTime,W	;Put the pulse into the CCP reg.
00679 0095 0798 		ADDWF	CCPR2L,F
00680 0096 0826 		MOVF	S2SigOutTime+1,W
00681 0097 3D99 		ADDWFC	CCPR2H,F
00682 0098 0020 		movlb	0	;Bank 0
RocketServo2.asm                                                      Page: 8
/Users/davidflynn/Projects/Rocket-Servo/Firmware RS2 Rev nc/

00683 0099 300A 		movlw	CCPnCON_Int
00684 009A 1ED0 		btfss	S2InPosShutdown
00685 009B 3009 		MOVLW	CCPnCON_Clr	;Clear output on match
00686 009C 1F50 		btfss	S2InPosition
00687 009D 3009 		MOVLW	CCPnCON_Clr	;Clear output on match
00688 009E 0025 		movlb	5	;Bank 5
00689 009F 009A 		MOVWF	CCP2CON	;CCP1 clr on match
00690 00A0 	;Calculate dwell time
00691 00A0 3000 		MOVLW	LOW kServoDwellTime
00692 00A1 00A8 		MOVWF	S2CalcdDwell
00693 00A2 307D 		MOVLW	HIGH kServoDwellTime
00694 00A3 00A9 		MOVWF	S2CalcdDwellH
00695 00A4 0825 		MOVF	S2SigOutTime,W
00696 00A5 02A8 		SUBWF	S2CalcdDwell,F
00697 00A6 0826 		MOVF	S2SigOutTime+1,W
00698 00A7 3BA9 		SUBWFB	S2CalcdDwellH,F
00699 00A8 320C 		bra	IRQ_Servo2_X
00700 00A9 	;
00701 00A9 	; output went low so this cycle is done
00702 00A9 3000 	IRQ_Servo2_OL	MOVLW	LOW kServoDwellTime
00703 00AA 0798 		ADDWF	CCPR2L,F
00704 00AB 307D 		MOVLW	HIGH kServoDwellTime
00705 00AC 3D99 		ADDWFC	CCPR2H,F
00706 00AD 	;
00707 00AD 0020 		movlb	0	;Bank 0
00708 00AE 300A 		movlw	CCPnCON_Int
00709 00AF 1ED0 		btfss	S2InPosShutdown
00710 00B0 3008 		MOVLW	CCPnCON_Set	;Set output on match
00711 00B1 1F50 		btfss	S2InPosition
00712 00B2 3008 		MOVLW	CCPnCON_Set	;Set output on match
00713 00B3 0025 		movlb	5	;Bank 5
00714 00B4 009A 		MOVWF	CCP2CON	;Idle output low
00715 00B5 	;
00716 00B5 0020 	IRQ_Servo2_X	movlb	0x00                   ;Bank 0
00717 00B6 1012 		BCF	PIR2,CCP2IF
00718 00B7 	IRQ_Servo2_End:
00719 00B7 	;--------------------------------------------------------------------
00720 00B7 	;
00721 00B7 0009 		retfie		; return from interrupt
00722 00B8 	;
00723 00B8 	;
00724 00B8 	;==============================================================================================
00725 00B8 	;**********************************************************************************************
00726 00B8 	;==============================================================================================
00727 00B8 	;
00728 00B8 0021 	start	movlb	0x01	; select bank 1
00729 00B9 1795 		bsf	OPTION_REG,NOT_WPUEN	; disable pullups on port B
00730 00BA 1295 		bcf	OPTION_REG,TMR0CS	; TMR0 clock Fosc/4
00731 00BB 1195 		bcf	OPTION_REG,PSA	; prescaler assigned to TMR0
00732 00BC 1415 		bsf	OPTION_REG,PS0	;111 8mhz/4/256=7812.5hz=128uS/Ct=0.032768S/ISR
00733 00BD 1495 		bsf	OPTION_REG,PS1	;101 8mhz/4/64=31250hz=32uS/Ct=0.008192S/ISR
00734 00BE 1515 		bsf	OPTION_REG,PS2
00735 00BF 	;
00736 00BF 3072 		MOVLW	OSCCON_Value
00737 00C0 0099 		MOVWF	OSCCON
00738 00C1 3017 		movlw	b'00010111'	; WDT prescaler 1:65536 period is 2 sec (RESET value)
00739 00C2 0097 		movwf	WDTCON
00740 00C3 	;
00741 00C3 0023 		movlb	0x03	; bank 3
00742 00C4 	;
00743 00C4 3003 		movlw	0x03	; AN0,AN1 only
00744 00C5 008C 		MOVWF	ANSELA	
00745 00C6 3000 		movlw	0x00
00746 00C7 008D 		movwf	ANSELB
00747 00C8 	;
00748 00C8 	; setup timer 1 for 0.5uS/count
00749 00C8 	;
00750 00C8 0020 		movlb	0	; bank 0
00751 00C9 3001 		MOVLW	T1CON_Val
00752 00CA 0098 		MOVWF	T1CON
00753 00CB 1399 		bcf	T1GCON,TMR1GE
00754 00CC 	;
00755 00CC 	; clear memory to zero
00756 00CC 24C0 		CALL	ClearRam
00757 00CD 	;
00758 00CD 	; Setup timer 2 for 0.01S/Interupt
00759 00CD 304E 		MOVLW	T2CON_Value	;Setup T2 for 100/s
00760 00CE 009C 		MOVWF	T2CON
00761 00CF 307D 		MOVLW	PR2_Value
00762 00D0 009B 		MOVWF	PR2
00763 00D1 0021 		movlb	1	;Bank 1
00764 00D2 1491 		BSF	PIE1,TMR2IE
00765 00D3 	;
00766 00D3 	; setup ccp1
00767 00D3 0025 		movlb	5                      ;Bank 5
00768 00D4 1622 		BSF	S1ServoOff
00769 00D5 0022 		movlb	2                      ;bank 2
00770 00D6 141D 		BSF	APFCON0,CCP1SEL	;RB0
00771 00D7 0025 		movlb	5                      ;bank 5
00772 00D8 0193 		CLRF	CCP1CON
00773 00D9 	;
00774 00D9 0021 		movlb	0x01	;Bank 1
00775 00DA 1511 		bsf	PIE1,CCP1IE
00776 00DB 	;
00777 00DB 	; setup ccp2
00778 00DB 0025 		movlb	5                      ;Bank 5
00779 00DC 1627 		BSF	S2ServoOff
00780 00DD 0022 		movlb	2                      ;bank 2
00781 00DE 159D 		BSF	APFCON0,CCP2SEL	;RA7
RocketServo2.asm                                                      Page: 9
/Users/davidflynn/Projects/Rocket-Servo/Firmware RS2 Rev nc/

00782 00DF 0025 		movlb	5                      ;bank 5
00783 00E0 019A 		CLRF	CCP2CON
00784 00E1 	;
00785 00E1 0021 		movlb	0x01	;Bank 1
00786 00E2 1412 		bsf	PIE2,CCP2IE
00787 00E3 	;
00788 00E3 	; setup data ports
00789 00E3 0020 		movlb                  0                      ;bank 0
00790 00E4 3000 		MOVLW	PortAValue
00791 00E5 008C 		MOVWF	PORTA	;Init PORTA
00792 00E6 0021 		movlb                  1                      ;bank 1
00793 00E7 3067 		MOVLW	PortADDRBits
00794 00E8 008C 		MOVWF	TRISA
00795 00E9 	;
00796 00E9 0020 		movlb                  0                      ;bank 0
00797 00EA 3000 		MOVLW	PortBValue
00798 00EB 008D 		MOVWF	PORTB	;Init PORTA
00799 00EC 0021 		movlb                  1                      ;bank 1
00800 00ED 30FE 		MOVLW	PortBDDRBits
00801 00EE 008D 		MOVWF	TRISB
00802 00EF 0020 		movlb	0	;bank 0
00803 00F0 	;
00804 00F0 	;Configure LEDs
00805 00F0 3064 		MOVLW	LEDTIME
00806 00F1 00A1 		MOVWF	LED_Time
00807 00F2 00A2 		movwf	LED2_PeriodTime
00808 00F3 00A4 		movwf	LED3_PeriodTime
00809 00F4 3014 		movlw	LEDFlashTime
00810 00F5 00A3 		movwf	LED2_FlashTime
00811 00F6 00A5 		movwf	LED3_FlashTime
00812 00F7 01AA 		clrf	LED2_Flashes	;LEDs off
00813 00F8 01AC 		clrf	LED3_Flashes
00814 00F9 	;
00815 00F9 24DF 		call	CopyToRam
00816 00FA 	;
00817 00FA 170B 		bsf	INTCON,PEIE	; enable periferal interupts
00818 00FB 178B 		bsf	INTCON,GIE	; enable interupts
00819 00FC 	;
00820 00FC 23E9 		call	Init_ADC
00821 00FD 	;
00822 00FD 	;=========================================================================================
00823 00FD 	;=========================================================================================
00824 00FD 	;  Test battery voltage and servo current before Main Loop
00825 00FD 	;
00826 00FD 3001 		movlw	0x01
00827 00FE 00BC 		movwf	State	;Start it
00828 00FF 	;
00829 00FF 0022 		movlb	2	;bank 2
00830 0100 158C 		bsf	ContEnable1	;Disable continuity S1
00831 0101 160C 		bsf	ContEnable2	;Disable continuity S2
00832 0102 0020 		movlb	0	;bank 0
00833 0103 	;
00834 0103 	;==============================================
00835 0103 	; Make servos active and move to Position 1
00836 0103 	;
00837 0103 0025 		movlb	5
00838 0104 1622 		bsf	S1ServoOff
00839 0105 1627 		bsf	S2ServoOff
00840 0106 	;
00841 0106 2430 		call	S1StartServo
00842 0107 	;
00843 0107 244E 		call	S2StartServo
00844 0108 	;
00845 0108 2230 		call	SetLED2_OFF
00846 0109 223F 		call	SetLED3_OFF
00847 010A 	;
00848 010A 	;=========================================================================================
00849 010A 	;
00850 010A 0020 	MainLoop	movlb	0	;Bank 0
00851 010B 	;
00852 010B 08BC 		movf	State,F
00853 010C 		SKPZ		;State=0?
00853 010C 1D03      M		BTFSS	STATUS,Z		BTFSS	STATUS,Z
00854 010D 322A 		bra	ML_SkipBtns
00855 010E 	;
00856 010E 	; Handle Inc/Dec buttons
00857 010E 0836 		movf	Timer4Lo,W
00858 010F 0437 		iorwf	Timer4Hi,W
00859 0110 		SKPZ		;Timer4 == 0?
00859 0110 1D03      M		BTFSS	STATUS,Z		BTFSS	STATUS,Z
00860 0111 3225 		bra	ML_Btns_End	; No
00861 0112 	;
00862 0112 1946 		btfsc	S1Active	;Servo 1 is active?
00863 0113 3202 		bra	ML_ChkBtns	; Yes
00864 0114 	;
00865 0114 1DC6 		btfss	S2Active	;Servo 2 is active?
00866 0115 3221 		bra	ML_Btns_End	; No, neither one is active
00867 0116 	;
00868 0116 1C46 	ML_ChkBtns	btfss	IncBtnFlag	;Inc button is down?
00869 0117 320F 		bra	ML_Btns_Dec	; No
00870 0118 	;
00871 0118 1CC6 		btfss	DecBtnFlag	;Dec button is down?
00872 0119 3202 		bra	ML_Btns_Inc	; No, only the Inc btn is down
00873 011A 	;
00874 011A 231D 		call	MoveActiveToCenter	;Both buttons are down
00875 011B 321B 		bra	ML_Btns_End
00876 011C 	;
00877 011C 	;	
00878 011C 	; Handle INC button
RocketServo2.asm                                                      Page: 10
/Users/davidflynn/Projects/Rocket-Servo/Firmware RS2 Rev nc/

00879 011C 236F 	ML_Btns_Inc	call	CopyPosToTemp
00880 011D 3002 		movlw	BtnChangeRate
00881 011E 07FC 		addwf	Param7C,F
00882 011F 3000 		movlw	0x00
00883 0120 3DFD 		addwfc	Param7D,F
00884 0121 2490 		call	ClampInt
00885 0122 2392 		call	CopyTempToPos
00886 0123 17C6 		bsf	DataChangedFlag
00887 0124 	;
00888 0124 3005 		movlw	0x05	; 0.05 seconds
00889 0125 00B6 		movwf	Timer4Lo
00890 0126 3210 		bra	ML_Btns_End
00891 0127 	;
00892 0127 	;-------------------------
00893 0127 	;
00894 0127 1CC6 	ML_Btns_Dec	btfss	DecBtnFlag	;Dec button is down?
00895 0128 320B 		bra	ML_Btns_Save	; No
00896 0129 	;
00897 0129 	; Handle DEC button
00898 0129 236F 		call	CopyPosToTemp
00899 012A 3002 		movlw	BtnChangeRate
00900 012B 02FC 		subwf	Param7C,F
00901 012C 3000 		movlw	0x00
00902 012D 3BFD 		subwfb	Param7D,F
00903 012E 2490 		call	ClampInt
00904 012F 2392 		call	CopyTempToPos
00905 0130 17C6 		bsf	DataChangedFlag
00906 0131 	;
00907 0131 3005 		movlw	0x05	; 0.05 seconds
00908 0132 00B6 		movwf	Timer4Lo
00909 0133 3203 		bra	ML_Btns_End
00910 0134 		bra	ML_Btns_End
00911 0134 1BC6 	ML_Btns_Save	btfsc	DataChangedFlag
00912 0135 24EC 		call	SaveParams
00913 0136 13C6 		bcf	DataChangedFlag
00914 0137 	ML_Btns_End:
00915 0137 	;
00916 0137 221A 		call	ConfigLEDs
00917 0138 	;
00918 0138 	;-------------------------
00919 0138 	;
00920 0138 08BC 	ML_SkipBtns	movf	State,F
00921 0139 		SKPZ		;State=0?
00921 0139 1D03      M		BTFSS	STATUS,Z		BTFSS	STATUS,Z
00922 013A 2141 		call	DoStateN	; No
00923 013B 	;
00924 013B 08BC 		movf	State,F
00925 013C 		SKPNZ		;State=0?
00925 013C 1903      M		BTFSC	STATUS,Z		BTFSC	STATUS,Z
00926 013D 22D2 		call	SetDestServo	; Yes
00927 013E 	;
00928 013E 224E 		call	MoveServo1
00929 013F 	;
00930 013F 2290 		call	MoveServo2
00931 0140 	;
00932 0140 290A 		goto	MainLoop
00933 0141 	;
00934 0141 	;-------------------------
00935 0141 	; Handle State>0
00936 0141 083D 	DoStateN	movf	State2,W
00937 0142 		SKPZ
00937 0142 1D03      M		BTFSS	STATUS,Z		BTFSS	STATUS,Z
00938 0143 21B7 		call	HandleState2
00939 0144 	;
00940 0144 3001 		movlw	1
00941 0145 023C 		subwf	State,W
00942 0146 		SKPZ		;State=1?
00942 0146 1D03      M		BTFSS	STATUS,Z		BTFSS	STATUS,Z
00943 0147 3205 		bra	TryState2	; No
00944 0148 	;
00945 0148 	;State 1, Start 1s Blink
00946 0148 3064 		movlw	.100
00947 0149 00A9 		movwf	LED_Blinks
00948 014A 3001 		movlw	0x01	;constant ON
00949 014B 00A1 		movwf	LED_Time
00950 014C 	;State1_End
00951 014C 3268 		bra	DoNextState
00952 014D 	;-----------------------------
00953 014D 3002 	TryState2	movlw	2
00954 014E 023C 		subwf	State,W
00955 014F 		SKPZ		;State=2?
00955 014F 1D03      M		BTFSS	STATUS,Z		BTFSS	STATUS,Z
00956 0150 3213 		bra	TryState3	; No
00957 0151 	;
00958 0151 	;State 2, Wait for 1s Blink to finish, Start 1s wait
00959 0151 0829 		movf	LED_Blinks,W
00960 0152 		SKPZ		;Done?
00960 0152 1D03      M		BTFSS	STATUS,Z		BTFSS	STATUS,Z
00961 0153 0008 	State2_Waiting	return		; No
00962 0154 	;
00963 0154 	; Wait for servos to be in position and done w/ move time
00964 0154 	;
00965 0154 1D50 		btfss	S1InPosition
00966 0155 33FD 		bra	State2_Waiting
00967 0156 1F50 		btfss	S2InPosition
00968 0157 33FB 		bra	State2_Waiting
00969 0158 0832 		movf	Servo1MoveTimerLo,W
00970 0159 0433 		iorwf	Servo1MoveTimerHi,W
00971 015A 		SKPZ
RocketServo2.asm                                                      Page: 11
/Users/davidflynn/Projects/Rocket-Servo/Firmware RS2 Rev nc/

00971 015A 1D03      M		BTFSS	STATUS,Z		BTFSS	STATUS,Z
00972 015B 33F7 		bra	State2_Waiting
00973 015C 0838 		movf	Servo2MoveTimerLo,W
00974 015D 0439 		iorwf	Servo2MoveTimerHi,W
00975 015E 		SKPZ
00975 015E 1D03      M		BTFSS	STATUS,Z		BTFSS	STATUS,Z
00976 015F 33F3 		bra	State2_Waiting
00977 0160 	;
00978 0160 3064 		movlw	.100	; Yes, Wail 1s
00979 0161 00B0 		movwf	Timer1Lo
00980 0162 01B1 		clrf	Timer1Hi
00981 0163 	;State2_End
00982 0163 	; It has been 3s, servos should be at position 1, get servo idle current
00983 0163 	;
00984 0163 3251 		bra	DoNextState
00985 0164 	;----------------------------
00986 0164 3003 	TryState3	movlw	3
00987 0165 023C 		subwf	State,W
00988 0166 		SKPZ		;State=3?
00988 0166 1D03      M		BTFSS	STATUS,Z		BTFSS	STATUS,Z
00989 0167 3219 		bra	TryState4	; No
00990 0168 	;
00991 0168 	;State 3, Wait for timer, Start Batt Volt Blinks
00992 0168 0830 		movf	Timer1Lo,W
00993 0169 0431 		iorwf	Timer1Hi,W
00994 016A 		SKPZ		;Timer1=0?
00994 016A 1D03      M		BTFSS	STATUS,Z		BTFSS	STATUS,Z
00995 016B 0008 		return		; No
00996 016C 	;
00997 016C 21FB 		call	BlinkBattVolts	;Read battery voltage
00998 016D 	;
00999 016D 1DD0 		btfss	BattV_OK	;Batt volts OK?
01000 016E 3207 		bra	State3_BlinkError	; No
01001 016F 	; Battery voltage is OK
01002 016F 0022 		movlb	2	;bank 2
01003 0170 118C 		bcf	ContEnable1	;Enable continuity
01004 0171 120C 		bcf	ContEnable2	;Enable continuity
01005 0172 0020 		movlb	0	;bank 0
01006 0173 	;
01007 0173 3001 		movlw	1
01008 0174 00BD 		movwf	State2	;Start servo current test
01009 0175 	;
01010 0175 	;State3_End
01011 0175 323F 		bra	DoNextState
01012 0176 	;
01013 0176 01F4 	ErrorTime	EQU	.500	;5 seconds
01014 0176 	;
01015 0176 	; Blink error for 5 seconds
01016 0176 300A 	State3_BlinkError	movlw	LEDErrorTime
01017 0177 00A1 		MOVWF	LED_Time
01018 0178 30FF 		movlw	0xFF
01019 0179 00A9 		movwf	LED_Blinks
01020 017A 	;
01021 017A 30F4 		movlw	low ErrorTime
01022 017B 00B0 		movwf	Timer1Lo
01023 017C 3001 		movlw	high ErrorTime
01024 017D 00B1 		movwf	Timer1Hi
01025 017E 3007 		movlw	0x07
01026 017F 00BC 		movwf	State
01027 0180 0008 		return
01028 0181 	;
01029 0181 	;------------------------------
01030 0181 3004 	TryState4	movlw	4
01031 0182 023C 		subwf	State,W
01032 0183 		SKPZ		;State=4?
01032 0183 1D03      M		BTFSS	STATUS,Z		BTFSS	STATUS,Z
01033 0184 3207 		bra	TryState5	; No
01034 0185 	;
01035 0185 	;State 4, Wait for Blinks to finish, start 1s deley
01036 0185 0829 		movf	LED_Blinks,W
01037 0186 		SKPZ		;LED_Blinks=0?
01037 0186 1D03      M		BTFSS	STATUS,Z		BTFSS	STATUS,Z
01038 0187 0008 		return		; No
01039 0188 	;
01040 0188 3064 		movlw	.100	; Yes, Wail 1s
01041 0189 00B0 		movwf	Timer1Lo
01042 018A 01B1 		clrf	Timer1Hi		
01043 018B 	;State4_End	
01044 018B 3229 		bra	DoNextState
01045 018C 	;
01046 018C 	;----------------------------
01047 018C 3005 	TryState5	movlw	5
01048 018D 023C 		subwf	State,W
01049 018E 		SKPZ		;State=5?
01049 018E 1D03      M		BTFSS	STATUS,Z		BTFSS	STATUS,Z
01050 018F 3209 		bra	TryState6	; No
01051 0190 	;
01052 0190 	;State 5 Wait for 1s Delay to end, Start 1s Blink
01053 0190 0830 		movf	Timer1Lo,W
01054 0191 0431 		iorwf	Timer1Hi,W
01055 0192 		SKPZ		;Timer1=0?
01055 0192 1D03      M		BTFSS	STATUS,Z		BTFSS	STATUS,Z
01056 0193 0008 		return		; No
01057 0194 	;
01058 0194 3064 		movlw	.100
01059 0195 00A9 		movwf	LED_Blinks
01060 0196 3001 		movlw	0x01	;constant ON
01061 0197 00A1 		movwf	LED_Time
01062 0198 	;State5_End
RocketServo2.asm                                                      Page: 12
/Users/davidflynn/Projects/Rocket-Servo/Firmware RS2 Rev nc/

01063 0198 321C 		bra	DoNextState
01064 0199 	;
01065 0199 	;-----------------------------
01066 0199 3006 	TryState6	movlw	6
01067 019A 023C 		subwf	State,W
01068 019B 		SKPZ		;State=6?
01068 019B 1D03      M		BTFSS	STATUS,Z		BTFSS	STATUS,Z
01069 019C 3207 		bra	TryState7	; No
01070 019D 	;
01071 019D 	;State 6 Wait for 1s Blink to end, Start 1s delay
01072 019D 0829 		movf	LED_Blinks,W
01073 019E 		SKPZ		;LED_Blinks=0?
01073 019E 1D03      M		BTFSS	STATUS,Z		BTFSS	STATUS,Z
01074 019F 0008 		return		; No
01075 01A0 	;
01076 01A0 3064 		movlw	.100	; Yes, Wail 1s
01077 01A1 00B0 		movwf	Timer1Lo
01078 01A2 01B1 		clrf	Timer1Hi		
01079 01A3 	;State6_End	
01080 01A3 3211 		bra	DoNextState
01081 01A4 	;
01082 01A4 	;----------------------------
01083 01A4 3007 	TryState7	movlw	7
01084 01A5 023C 		subwf	State,W
01085 01A6 		SKPZ		;State=7?
01085 01A6 1D03      M		BTFSS	STATUS,Z		BTFSS	STATUS,Z
01086 01A7 320B 		bra	TryState8	; No
01087 01A8 	;
01088 01A8 	;State 7 Wait for 1s Delay to end
01089 01A8 0830 		movf	Timer1Lo,W
01090 01A9 0431 		iorwf	Timer1Hi,W
01091 01AA 		SKPZ		;Timer1=0?
01091 01AA 1D03      M		BTFSS	STATUS,Z		BTFSS	STATUS,Z
01092 01AB 0008 		return		; No
01093 01AC 	;
01094 01AC 	; Wait for State2=0
01095 01AC 083D 		movf	State2,W
01096 01AD 		SKPZ
01096 01AD 1D03      M		BTFSS	STATUS,Z		BTFSS	STATUS,Z
01097 01AE 0008 		return
01098 01AF 	;
01099 01AF 	;State7_End
01100 01AF 	; normal system blinks
01101 01AF 3064 		MOVLW	LEDTIME
01102 01B0 00A1 		MOVWF	LED_Time
01103 01B1 30FF 		movlw	0xFF
01104 01B2 00A9 		movwf	LED_Blinks
01105 01B3 	;
01106 01B3 	; Last State=LastState+1 so we're done
01107 01B3 	TryState8:
01108 01B3 01BC 	LastState	clrf	State
01109 01B4 0008 		return
01110 01B5 	;
01111 01B5 0ABC 	DoNextState	incf	State,F	
01112 01B6 0008 		return
01113 01B7 	;
01114 01B7 	;========================================================================================
01115 01B7 	; Servo current testing
01116 01B7 	;
01117 01B7 0064 	SmallServoMove	EQU	.100
01118 01B7 0014 	MinPeakCurrent	EQU	.20
01119 01B7 	;
01120 01B7 	;
01121 01B7 3001 	HandleState2	movlw	1
01122 01B8 023D 		subwf	State2,W
01123 01B9 		SKPZ		;State2=1?
01123 01B9 1D03      M		BTFSS	STATUS,Z		BTFSS	STATUS,Z
01124 01BA 320C 		bra	HandleState2_2	; No
01125 01BB 	;
01126 01BB 23C4 		call	GetIdleCurrent
01127 01BC 23CD 		call	ClearPeakCurrent
01128 01BD 	;
01129 01BD 	; Move Servo1 to Position1+100
01130 01BD 3064 		movlw	SmallServoMove
01131 01BE 0748 		addwf	S1Position1,W
01132 01BF 00BE 		movwf	S1Dest
01133 01C0 0103 		clrw
01134 01C1 3D49 		addwfc	S1Position1+1,W
01135 01C2 00BF 		movwf	S1Dest+1
01136 01C3 1150 		bcf	S1InPosition
01137 01C4 1147 		bcf	S1CurPosIsDest
01138 01C5 	;
01139 01C5 0ABD 	DoNextState2	incf	State2,F
01140 01C6 0008 		return
01141 01C7 	;
01142 01C7 	;-------------------------------
01143 01C7 3002 	HandleState2_2	movlw	2
01144 01C8 023D 		subwf	State2,W
01145 01C9 		SKPZ		;State2=2?
01145 01C9 1D03      M		BTFSS	STATUS,Z		BTFSS	STATUS,Z
01146 01CA 320C 		bra	HandleState2_3	; No
01147 01CB 	;
01148 01CB 23D2 		call	GetPeakCurrect
01149 01CC 	;
01150 01CC 	; wait for servo to finish moving
01151 01CC 1D47 		btfss	S1CurPosIsDest	;Move done?
01152 01CD 0008 		return		; No
01153 01CE 	;
01154 01CE 	; Move Servo1 to Position1-100
RocketServo2.asm                                                      Page: 13
/Users/davidflynn/Projects/Rocket-Servo/Firmware RS2 Rev nc/

01155 01CE 3064 		movlw	SmallServoMove
01156 01CF 0248 		subwf	S1Position1,W
01157 01D0 00BE 		movwf	S1Dest
01158 01D1 0103 		clrw
01159 01D2 3B49 		subwfb	S1Position1+1,W
01160 01D3 00BF 		movwf	S1Dest+1
01161 01D4 1150 		bcf	S1InPosition
01162 01D5 1147 		bcf	S1CurPosIsDest
01163 01D6 	;
01164 01D6 33EE 		bra	DoNextState2
01165 01D7 	;------------------------------
01166 01D7 3003 	HandleState2_3	movlw	3
01167 01D8 023D 		subwf	State2,W
01168 01D9 		SKPZ		;State2=3?
01168 01D9 1D03      M		BTFSS	STATUS,Z		BTFSS	STATUS,Z
01169 01DA 320A 		bra	HandleState2_4	; No
01170 01DB 	;
01171 01DB 23D2 		call	GetPeakCurrect
01172 01DC 	;
01173 01DC 	; wait for servo to finish moving
01174 01DC 1D47 		btfss	S1CurPosIsDest	;Move done?
01175 01DD 0008 		return		; No
01176 01DE 	;
01177 01DE 	; Move Servo1 to Position1
01178 01DE 0848 		movf	S1Position1,W
01179 01DF 00BE 		movwf	S1Dest
01180 01E0 0849 		movf	S1Position1+1,W
01181 01E1 00BF 		movwf	S1Dest+1
01182 01E2 1150 		bcf	S1InPosition
01183 01E3 1147 		bcf	S1CurPosIsDest
01184 01E4 	;
01185 01E4 33E0 		bra	DoNextState2
01186 01E5 	;----------------------------
01187 01E5 3004 	HandleState2_4	movlw	4
01188 01E6 023D 		subwf	State2,W
01189 01E7 		SKPZ		;State2=4?
01189 01E7 1D03      M		BTFSS	STATUS,Z		BTFSS	STATUS,Z
01190 01E8 3210 		bra	HandleState2_5
01191 01E9 	;
01192 01E9 23D2 		call	GetPeakCurrect
01193 01EA 	;
01194 01EA 	; wait for servo to finish moving
01195 01EA 1D47 		btfss	S1CurPosIsDest	;Move done?
01196 01EB 0008 		return		; No
01197 01EC 	;
01198 01EC 	; Is peak current > minimum (10)?
01199 01EC 0021 		movlb	1	;bank 1
01200 01ED 082B 		movf	PeakCurrent+1,W
01201 01EE 		SKPZ		;Current>255?
01201 01EE 1D03      M		BTFSS	STATUS,Z		BTFSS	STATUS,Z
01202 01EF 3206 		bra	HandleState2_4_1
01203 01F0 3014 		movlw	MinPeakCurrent
01204 01F1 022A 		subwf	PeakCurrent,W
01205 01F2 		SKPB		;Current<MinPeakCurrent?
01205 01F2 1803      M		BTFSC	STATUS,C		BTFSC	STATUS,C
01206 01F3 3202 		bra	HandleState2_4_1	; No, Current>=MinPeakCurrent
01207 01F4 0020 		movlb	0	;bank 0, Yes, no servo found
01208 01F5 33CF 		bra	DoNextState2
01209 01F6 	;
01210 01F6 0020 	HandleState2_4_1	movlb	0	;bank 0
01211 01F7 1447 		bsf	S1Found	;Servo is attached
01212 01F8 33CC 		bra	DoNextState2
01213 01F9 	;---------------------------
01214 01F9 	HandleState2_5
01215 01F9 	; Wiggled the servos while looking at the current
01216 01F9 	;
01217 01F9 		
01218 01F9 	;	bsf	S2Found
01219 01F9 01BD 		clrf	State2
01220 01FA 	;
01221 01FA 0008 		return
01222 01FB 	;
01223 01FB 	;========================================================================================
01224 01FB 	;----------------------------------------------------------------------------------------
01225 01FB 	;========================================================================================
01226 01FB 	;
01227 01FB 0020 	BlinkBattVolts	movlb	0	;bank 0
01228 01FC 11D0 		bcf	BattV_OK
01229 01FD 	; Get batt ADC
01230 01FD 0021 		movlb	1	;bank 1
01231 01FE 142C 		bsf	AN0_Semaphore
01232 01FF 0824 		movf	AN0_DataL,W
01233 0200 00FC 		movwf	Param7C
01234 0201 0825 		movf	AN0_DataH,W
01235 0202 00FD 		movwf	Param7D
01236 0203 102C 		bcf	AN0_Semaphore
01237 0204 0020 		movlb	0	;bank 0
01238 0205 	;
01239 0205 30E8 		movlw	MinBattVolts
01240 0206 027C 		subwf	Param7C,W	;ADC-MinBattVolts
01241 0207 3000 		movlw	high MinBattVolts
01242 0208 3B7D 		subwfb	Param7D,W
01243 0209 		SKPB		:ADC<MinBattVolts?
01243 0209 1803      M		BTFSC	STATUS,C		BTFSC	STATUS,C
01244 020A 15D0 		bsf	BattV_OK	; No
01245 020B 	;
01246 020B 	; devide by 32, should be 35.8
01247 020B 36FD 		lsrf	Param7D,F
01248 020C 0CFC 		rrf	Param7C,F
RocketServo2.asm                                                      Page: 14
/Users/davidflynn/Projects/Rocket-Servo/Firmware RS2 Rev nc/

01249 020D 36FD 		lsrf	Param7D,F
01250 020E 0CFC 		rrf	Param7C,F
01251 020F 36FD 		lsrf	Param7D,F
01252 0210 0CFC 		rrf	Param7C,F
01253 0211 36FD 		lsrf	Param7D,F
01254 0212 0CFC 		rrf	Param7C,F
01255 0213 36FD 		lsrf	Param7D,F
01256 0214 0CFC 		rrf	Param7C,F
01257 0215 	;
01258 0215 3032 		movlw	.50	; 1/2 second
01259 0216 00A1 		movwf	LED_Time
01260 0217 087C 		movf	Param7C,W
01261 0218 00A9 		movwf	LED_Blinks	; Blink battery voltage, range 6..11
01262 0219 0008 		return
01263 021A 	;
01264 021A 	;
01265 021A 	;========================================================================================
01266 021A 	;
01267 021A 0020 	ConfigLEDs	movlb	0	;bank 0
01268 021B 	; 3 states: Off=no servo detected, 1 flash=Pos1, On=Pos2 
01269 021B 	;if pos2 set LED ON
01270 021B 1EC6 		btfss	LED2Flag
01271 021C 3202 		bra	ML_LED2_NotOn
01272 021D 2239 		call	SetLED2_ON
01273 021E 3206 		bra	ML_LED2_End
01274 021F 	;
01275 021F 1847 	ML_LED2_NotOn	btfsc	S1Found
01276 0220 3202 		bra	ML_LED2_Flash
01277 0221 2230 		call	SetLED2_OFF
01278 0222 3202 		bra	ML_LED2_End
01279 0223 	;
01280 0223 3001 	ML_LED2_Flash	movlw	1
01281 0224 2231 		call	SetLED2_W_Flashes
01282 0225 	ML_LED2_End:
01283 0225 	;
01284 0225 	; if pos2 set LED ON
01285 0225 1F46 		btfss	LED3Flag
01286 0226 3202 		bra	ML_LED3_NotOn
01287 0227 2248 		call	SetLED3_ON
01288 0228 3206 		bra	ML_LED3_End
01289 0229 	;
01290 0229 18C7 	ML_LED3_NotOn	btfsc	S2Found
01291 022A 3202 		bra	ML_LED3_Flash
01292 022B 223F 		call	SetLED3_OFF
01293 022C 3202 		bra	ML_LED3_End
01294 022D 	;
01295 022D 3001 	ML_LED3_Flash	movlw	1
01296 022E 2240 		call	SetLED3_W_Flashes
01297 022F 	ML_LED3_End:
01298 022F 0008 		return
01299 0230 	;
01300 0230 	;----------------------------------------------------------------------------------------
01301 0230 	; Set routines for LED2/LED3
01302 0230 3000 	SetLED2_OFF	movlw	0
01303 0231 	;
01304 0231 0020 	SetLED2_W_Flashes	movlb	0	;bank0
01305 0232 3903 		andlw	0x03	;Limit to 0..3 flashes
01306 0233 00AA 		movwf	LED2_Flashes
01307 0234 3064 		movlw	LEDTIME	;1s
01308 0235 00A2 		movwf	LED2_PeriodTime
01309 0236 3014 		movlw	LEDFlashTime	;0.1s
01310 0237 00A3 		movwf	LED2_FlashTime
01311 0238 0008 		return
01312 0239 	;
01313 0239 0020 	SetLED2_ON	movlb	0	;bank 0
01314 023A 3001 		movlw	0x01
01315 023B 00AA 		movwf	LED2_Flashes
01316 023C 00A2 		movwf	LED2_PeriodTime
01317 023D 00A3 		movwf	LED2_FlashTime
01318 023E 0008 		return
01319 023F 	;
01320 023F 3000 	SetLED3_OFF	movlw	0
01321 0240 	;
01322 0240 0020 	SetLED3_W_Flashes	movlb	0	;bank0
01323 0241 3903 		andlw	0x03	;Limit to 0..3 flashes
01324 0242 00AC 		movwf	LED3_Flashes
01325 0243 3064 		movlw	LEDTIME
01326 0244 00A4 		movwf	LED3_PeriodTime
01327 0245 3014 		movlw	LEDFlashTime
01328 0246 00A5 		movwf	LED3_FlashTime
01329 0247 0008 		return
01330 0248 	;
01331 0248 0020 	SetLED3_ON	movlb	0	;bank 0
01332 0249 3001 		movlw	0x01
01333 024A 00AC 		movwf	LED3_Flashes
01334 024B 00A4 		movwf	LED3_PeriodTime
01335 024C 00A5 		movwf	LED3_FlashTime
01336 024D 0008 		return
01337 024E 	;
01338 024E 	;========================================================================================
01339 024E 	; Move Servo1 CurPos toward Dest
01340 024E 	;
01341 024E 0020 	MoveServo1	movlb	0	;Bank 0
01342 024F 1C50 		btfss	S1PulseSent
01343 0250 323E 		bra	MS1_End
01344 0251 1050 		bcf	S1PulseSent
01345 0252 	;
01346 0252 083E 		movf	S1Dest,W
01347 0253 0240 		subwf	S1CurPos,W
RocketServo2.asm                                                      Page: 15
/Users/davidflynn/Projects/Rocket-Servo/Firmware RS2 Rev nc/

01348 0254 00F8 		movwf	Param78
01349 0255 083F 		movf	S1Dest+1,W
01350 0256 3B41 		subwfb	S1CurPos+1,W
01351 0257 04F8 		iorwf	Param78,F
01352 0258 		SKPZ		;Dest == CurPos?
01352 0258 1D03      M		BTFSS	STATUS,Z		BTFSS	STATUS,Z
01353 0259 3206 		bra	MS1_1	; No
01354 025A 1547 		bsf	S1CurPosIsDest
01355 025B 0832 		movf	Servo1MoveTimerLo,W
01356 025C 0433 		iorwf	Servo1MoveTimerHi,W
01357 025D 		SKPNZ
01357 025D 1903      M		BTFSC	STATUS,Z		BTFSC	STATUS,Z
01358 025E 1550 		bsf	S1InPosition	
01359 025F 3229 		bra	MS1_Move_It_Now	; Yes
01360 0260 	;
01361 0260 302C 	MS1_1	movlw	Low ServoMoveTime
01362 0261 00B2 		movwf	Servo1MoveTimerLo
01363 0262 3001 		movlw	High ServoMoveTime
01364 0263 00B3 		movwf	Servo1MoveTimerHi
01365 0264 1150 		bcf	S1InPosition
01366 0265 	;
01367 0265 0020 		movlb	0	;Bank 0
01368 0266 083E 		movf	S1Dest,W
01369 0267 00F8 		movwf	Param78
01370 0268 083F 		movf	S1Dest+1,W
01371 0269 00F9 		movwf	Param79
01372 026A 	;
01373 026A 0840 		movf	S1CurPos,W
01374 026B 00FC 		movwf	Param7C
01375 026C 0841 		movf	S1CurPos+1,W
01376 026D 00FD 		movwf	Param7D
01377 026E 	;
01378 026E 24B1 		call	Param7D_LE_Param79
01379 026F 1C77 		btfss	Param77,0	;CurPos<=Dest?
01380 0270 320C 		bra	MS1_Move_It_Neg	; No, CurPos>Dest
01381 0271 	;CurPos<Dest, so move CurPos positive
01382 0271 3040 		movlw	SlewChangeRate
01383 0272 07FC 		addwf	Param7C,F
01384 0273 3000 		movlw	0x00
01385 0274 3DFD 		addwfc	Param7D,F
01386 0275 24B1 		call	Param7D_LE_Param79
01387 0276 1C77 		btfss	Param77,0	;CurPos<=Dest Still?
01388 0277 320D 		bra	MS1_Move_It_Dest	; No, CurPos>Dest
01389 0278 				; Yes, CurPos+=SlewChangeRate
01390 0278 	;
01391 0278 	; make the calculated position the current position
01392 0278 087C 	MS1_Move_It_New	movf	Param7C,W
01393 0279 00C0 		movwf	S1CurPos
01394 027A 087D 		movf	Param7D,W
01395 027B 00C1 		movwf	S1CurPos+1
01396 027C 320C 		bra	MS1_Move_It_Now
01397 027D 	;
01398 027D 	MS1_Move_It_Neg:
01399 027D 3040 		movlw	SlewChangeRate
01400 027E 02FC 		subwf	Param7C,F
01401 027F 3000 		movlw	0x00
01402 0280 3BFD 		subwfb	Param7D,F
01403 0281 24B1 		call	Param7D_LE_Param79
01404 0282 1877 		btfsc	Param77,0	;CurPos<=Dest now?
01405 0283 3201 		bra	MS1_Move_It_Dest	; Yes, CurPos<=Dest
01406 0284 33F3 		bra	MS1_Move_It_New
01407 0285 	;
01408 0285 	; make the current position the destination
01409 0285 083E 	MS1_Move_It_Dest	movf	S1Dest,W
01410 0286 00C0 		movwf	S1CurPos
01411 0287 083F 		movf	S1Dest+1,W
01412 0288 00C1 		movwf	S1CurPos+1
01413 0289 	;
01414 0289 	MS1_Move_It_Now:
01415 0289 0020 		movlb	0	;Bank0
01416 028A 0840 		movf	S1CurPos,W
01417 028B 00FC 		movwf	Param7C
01418 028C 0841 		movf	S1CurPos+1,W
01419 028D 00FD 		movwf	Param7D
01420 028E 2B24 		goto	S1Copy7CToSig
01421 028F 	;
01422 028F 0008 	MS1_End	return
01423 0290 	;
01424 0290 	;========================================================================================
01425 0290 	; Move Servo1 CurPos toward Dest
01426 0290 	;
01427 0290 0020 	MoveServo2	movlb	0	;Bank 0
01428 0291 1E50 		btfss	S2PulseSent
01429 0292 323E 		bra	MS2_End
01430 0293 1250 		bcf	S2PulseSent
01431 0294 	;
01432 0294 0842 		movf	S2Dest,W
01433 0295 0244 		subwf	S2CurPos,W
01434 0296 00F8 		movwf	Param78
01435 0297 0843 		movf	S2Dest+1,W
01436 0298 3B45 		subwfb	S2CurPos+1,W
01437 0299 04F8 		iorwf	Param78,F
01438 029A 		SKPZ		;Dest == CurPos?
01438 029A 1D03      M		BTFSS	STATUS,Z		BTFSS	STATUS,Z
01439 029B 3206 		bra	MS2_1
01440 029C 15C7 		bsf	S2CurPosIsDest
01441 029D 0838 		movf	Servo2MoveTimerLo,W
01442 029E 0439 		iorwf	Servo2MoveTimerHi,W
01443 029F 		SKPNZ
RocketServo2.asm                                                      Page: 16
/Users/davidflynn/Projects/Rocket-Servo/Firmware RS2 Rev nc/

01443 029F 1903      M		BTFSC	STATUS,Z		BTFSC	STATUS,Z
01444 02A0 1750 		bsf	S2InPosition
01445 02A1 3229 		bra	MS2_Move_It_Now	; Yes
01446 02A2 	;
01447 02A2 302C 	MS2_1	movlw	Low ServoMoveTime
01448 02A3 00B8 		movwf	Servo2MoveTimerLo
01449 02A4 3001 		movlw	High ServoMoveTime
01450 02A5 00B9 		movwf	Servo2MoveTimerHi
01451 02A6 1350 		bcf	S2InPosition
01452 02A7 	;
01453 02A7 0020 		movlb	0	;Bank 0
01454 02A8 0842 		movf	S2Dest,W
01455 02A9 00F8 		movwf	Param78
01456 02AA 0843 		movf	S2Dest+1,W
01457 02AB 00F9 		movwf	Param79
01458 02AC 	;
01459 02AC 0844 		movf	S2CurPos,W
01460 02AD 00FC 		movwf	Param7C
01461 02AE 0845 		movf	S2CurPos+1,W
01462 02AF 00FD 		movwf	Param7D
01463 02B0 	;
01464 02B0 24B1 		call	Param7D_LE_Param79
01465 02B1 1C77 		btfss	Param77,0	;CurPos<=Dest?
01466 02B2 320C 		bra	MS2_Move_It_Neg	; No, CurPos>Dest
01467 02B3 	;CurPos<Dest, so move CurPos positive
01468 02B3 3040 		movlw	SlewChangeRate
01469 02B4 07FC 		addwf	Param7C,F
01470 02B5 3000 		movlw	0x00
01471 02B6 3DFD 		addwfc	Param7D,F
01472 02B7 24B1 		call	Param7D_LE_Param79
01473 02B8 1C77 		btfss	Param77,0	;CurPos<=Dest Still?
01474 02B9 320D 		bra	MS2_Move_It_Dest	; No, CurPos>Dest
01475 02BA 				; Yes, CurPos+=SlewChangeRate
01476 02BA 	;
01477 02BA 	; make the calculated position the current position
01478 02BA 087C 	MS2_Move_It_New	movf	Param7C,W
01479 02BB 00C4 		movwf	S2CurPos
01480 02BC 087D 		movf	Param7D,W
01481 02BD 00C5 		movwf	S2CurPos+1
01482 02BE 320C 		bra	MS2_Move_It_Now
01483 02BF 	;
01484 02BF 	MS2_Move_It_Neg:
01485 02BF 3040 		movlw	SlewChangeRate
01486 02C0 02FC 		subwf	Param7C,F
01487 02C1 3000 		movlw	0x00
01488 02C2 3BFD 		subwfb	Param7D,F
01489 02C3 24B1 		call	Param7D_LE_Param79
01490 02C4 1877 		btfsc	Param77,0	;CurPos<=Dest now?
01491 02C5 3201 		bra	MS2_Move_It_Dest	; Yes, CurPos<=Dest
01492 02C6 33F3 		bra	MS2_Move_It_New
01493 02C7 	;
01494 02C7 	; make the current position the destination
01495 02C7 0842 	MS2_Move_It_Dest	movf	S2Dest,W
01496 02C8 00C4 		movwf	S2CurPos
01497 02C9 0843 		movf	S2Dest+1,W
01498 02CA 00C5 		movwf	S2CurPos+1
01499 02CB 	;
01500 02CB 	MS2_Move_It_Now:
01501 02CB 0020 		movlb	0	;Bank0
01502 02CC 0844 		movf	S2CurPos,W
01503 02CD 00FC 		movwf	Param7C
01504 02CE 0845 		movf	S2CurPos+1,W
01505 02CF 00FD 		movwf	Param7D
01506 02D0 2B39 		goto	S2Copy7CToSig
01507 02D1 	;
01508 02D1 0008 	MS2_End	return
01509 02D2 	;
01510 02D2 	;========================================================================================
01511 02D2 	; Set Dest for Servo 1
01512 02D2 	;
01513 02D2 	; w/ 50mS debounce
01514 02D2 	;  If SnCmdInputBit is active set SnSMRevFlag else clear SnSMRevFlag
01515 02D2 	;
01516 02D2 0020 	SetDestServo	movlb	0	;bank 0
01517 02D3 1E46 		btfss	NewSWData	;10mS interval passed?
01518 02D4 0008 		return		; No, IRQ sets bit 100 times per second
01519 02D5 1246 		bcf	NewSWData
01520 02D6 	;
01521 02D6 188D 		btfsc	S1CmdInputBit	;Contorl signal active?
01522 02D7 3211 		bra	SDS1_CmdNormal	; No
01523 02D8 	;
01524 02D8 	; debounce, don't change until we've seen the input 5 times, 0.05 seconds
01525 02D8 3005 		movlw	0x05
01526 02D9 0251 		subwf	S1CmdDebounce,W
01527 02DA 		SKPZ		;5 times?
01527 02DA 1D03      M		BTFSS	STATUS,Z		BTFSS	STATUS,Z
01528 02DB 320B 		bra	SDS1_Rev_Debounce	; No
01529 02DC 	;
01530 02DC 0025 		movlb	5	;Bank5
01531 02DD 16A2 		bsf	S1SMRevFlag	; move to position 2
01532 02DE 0020 		movlb	0	;Bank0
01533 02DF 16C6 		bsf	LED2Flag
01534 02E0 1546 		bsf	S1Active	;Buttons are active for servo1
01535 02E1 11C6 		bcf	S2Active
01536 02E2 302C 		movlw	Low ActivationTime
01537 02E3 00B4 		movwf	Servo1ActiveTimerLo
01538 02E4 3001 		movlw	High ActivationTime
01539 02E5 00B5 		movwf	Servo1ActiveTimerHi
01540 02E6 3211 		bra	SDS1_Move_It
RocketServo2.asm                                                      Page: 17
/Users/davidflynn/Projects/Rocket-Servo/Firmware RS2 Rev nc/

01541 02E7 	;
01542 02E7 0AD1 	SDS1_Rev_Debounce	incf	S1CmdDebounce,F
01543 02E8 3210 		bra	SDS1_End
01544 02E9 	;
01545 02E9 08D1 	SDS1_CmdNormal	movf	S1CmdDebounce,F
01546 02EA 		SKPZ
01546 02EA 1D03      M		BTFSS	STATUS,Z		BTFSS	STATUS,Z
01547 02EB 320A 		bra	SDS1_Norm_Debounce
01548 02EC 	;
01549 02EC 0020 		movlb	0	;Bank 0
01550 02ED 0834 		movf	Servo1ActiveTimerLo,W
01551 02EE 0435 		iorwf	Servo1ActiveTimerHi,W
01552 02EF 		SKPZ		;Activation time done?
01552 02EF 1D03      M		BTFSS	STATUS,Z		BTFSS	STATUS,Z
01553 02F0 3207 		bra	SDS1_Move_It	; No
01554 02F1 	;
01555 02F1 		if HoldOpen=0
01556 02F1 0025 		movlb	5	;Bank5
01557 02F2 12A2 		bcf	S1SMRevFlag	; Set position 1 as Dest
01558 02F3 0020 		movlb	0	;Bank0
01559 02F4 		endif
01560 02F4 	;
01561 02F4 12C6 		bcf	LED2Flag
01562 02F5 3202 		bra	SDS1_Move_It
01563 02F6 	;
01564 02F6 03D1 	SDS1_Norm_Debounce	decf	S1CmdDebounce,F
01565 02F7 3201 		bra	SDS1_End
01566 02F8 	;
01567 02F8 234E 	SDS1_Move_It	call	S1CopyPosToDest
01568 02F9 	;
01569 02F9 	SDS1_End:
01570 02F9 	;
01571 02F9 	;===========================================
01572 02F9 	; Set Dest for Servo 2
01573 02F9 	;
01574 02F9 	; w/ 50mS debounce
01575 02F9 	;  If SnCmdInputBit is active set SnSMRevFlag else clear SnSMRevFlag
01576 02F9 	;
01577 02F9 	;
01578 02F9 190D 		btfsc	S2CmdInputBit	;Contorl signal active?
01579 02FA 3211 		bra	SDS2_CmdNormal	; No
01580 02FB 	;
01581 02FB 	; debounce, don't change until we've seen the input 5 times
01582 02FB 3005 		movlw	0x05
01583 02FC 0252 		subwf	S2CmdDebounce,W
01584 02FD 		SKPZ		;5 times?
01584 02FD 1D03      M		BTFSS	STATUS,Z		BTFSS	STATUS,Z
01585 02FE 320B 		bra	SDS2_Rev_Debounce	; No
01586 02FF 	;
01587 02FF 0025 		movlb	5	;Bank5
01588 0300 16A7 		bsf	S2SMRevFlag
01589 0301 0020 		movlb	0	;Bank0
01590 0302 1746 		bsf	LED3Flag
01591 0303 15C6 		bsf	S2Active	;Buttons are active for servo2
01592 0304 1146 		bcf	S1Active
01593 0305 302C 		movlw	Low ActivationTime
01594 0306 00BA 		movwf	Servo2ActiveTimerLo
01595 0307 3001 		movlw	High ActivationTime
01596 0308 00BB 		movwf	Servo2ActiveTimerHi
01597 0309 3211 		bra	SDS2_Move_It
01598 030A 	;
01599 030A 0AD2 	SDS2_Rev_Debounce	incf	S2CmdDebounce,F
01600 030B 3210 		bra	SDS2_End
01601 030C 	;
01602 030C 08D2 	SDS2_CmdNormal	movf	S2CmdDebounce,F
01603 030D 		SKPZ
01603 030D 1D03      M		BTFSS	STATUS,Z		BTFSS	STATUS,Z
01604 030E 320A 		bra	SDS2_Norm_Debounce
01605 030F 	;
01606 030F 0020 		movlb	0	;Bank 0
01607 0310 083A 		movf	Servo2ActiveTimerLo,W
01608 0311 043B 		iorwf	Servo2ActiveTimerHi,W
01609 0312 		SKPZ		;Activation time done?
01609 0312 1D03      M		BTFSS	STATUS,Z		BTFSS	STATUS,Z
01610 0313 3207 		bra	SDS2_Move_It	; No
01611 0314 	;
01612 0314 0025 		movlb	5	;Bank5
01613 0315 12A7 		bcf	S2SMRevFlag
01614 0316 0020 		movlb	0	;Bank0
01615 0317 	;
01616 0317 1346 		bcf	LED3Flag
01617 0318 3202 		bra	SDS2_Move_It
01618 0319 	;
01619 0319 03D2 	SDS2_Norm_Debounce	decf	S2CmdDebounce,F
01620 031A 3201 		bra	SDS2_End
01621 031B 	;
01622 031B 2BB5 	SDS2_Move_It	goto	S2CopyPosToDest
01623 031C 	;
01624 031C 0008 	SDS2_End	return
01625 031D 	;
01626 031D 	;========================================================================================
01627 031D 	; Handle both buttons, move to center
01628 031D 	;
01629 031D 30B8 	MoveActiveToCenter	movlw	low kMidPulseWidth
01630 031E 00FC 		movwf	Param7C
01631 031F 300B 		movlw	high kMidPulseWidth
01632 0320 00FD 		movwf	Param7D
01633 0321 235D 		call	CopyTempToDest
01634 0322 13C6 		bcf	DataChangedFlag
RocketServo2.asm                                                      Page: 18
/Users/davidflynn/Projects/Rocket-Servo/Firmware RS2 Rev nc/

01635 0323 0008 		return
01636 0324 	;
01637 0324 	;========================================================================================
01638 0324 	; Param7D:Param7C >> S1SigOutTimeH:S1SigOutTime
01639 0324 	; Entry: Param7D:Param7C, any bank
01640 0324 	; Exit: Bank0
01641 0324 	; Calls: none
01642 0324 	;
01643 0324 	; Don't disable interrupts if you don't need to...
01644 0324 	; If Param7D:Param7C == S1SigOutTimeH:S1SigOutTime then return
01645 0324 	;
01646 0324 0025 	S1Copy7CToSig	movlb	5	;Bank5
01647 0325 087C 		MOVF	Param7C,W
01648 0326 0220 		SUBWF	S1SigOutTime,W
01649 0327 		SKPZ
01649 0327 1D03      M		BTFSS	STATUS,Z		BTFSS	STATUS,Z
01650 0328 3205 		bra	S1Copy7CToSig_1
01651 0329 087D 		MOVF	Param7D,W
01652 032A 0221 		SUBWF	S1SigOutTimeH,W
01653 032B 0020 		movlb	0	;Bank0
01654 032C 		SKPNZ		;Param7D:Param7D = S1SigOutTime?
01654 032C 1903      M		BTFSC	STATUS,Z		BTFSC	STATUS,Z
01655 032D 0008 		return		; Yes
01656 032E 	;
01657 032E 	;SigOutTimeH:SigOutTime = Param7D:Param7C
01658 032E 138B 	S1Copy7CToSig_1	bcf	INTCON,GIE
01659 032F 1B8B 		btfsc	INTCON,GIE
01660 0330 33FD 		bra	S1Copy7CToSig_1
01661 0331 	;
01662 0331 0025 		movlb	5	;Bank5
01663 0332 087C 		MOVF	Param7C,W
01664 0333 00A0 		MOVWF	S1SigOutTime
01665 0334 087D 		MOVF	Param7D,W
01666 0335 00A1 		MOVWF	S1SigOutTimeH
01667 0336 178B 		bsf	INTCON,GIE
01668 0337 	;
01669 0337 0020 		movlb	0	;Bank0
01670 0338 0008 		return
01671 0339 	;
01672 0339 	;========================================================================================
01673 0339 	; Param7D:Param7C >> S2SigOutTimeH:S2SigOutTime
01674 0339 	; Entry: Param7D:Param7C, any bank
01675 0339 	; Exit: Bank0
01676 0339 	; Calls: none
01677 0339 	;
01678 0339 	; Don't disable interrupts if you don't need to...
01679 0339 	; If Param7D:Param7C == S2SigOutTimeH:S2SigOutTime then return
01680 0339 	;
01681 0339 0025 	S2Copy7CToSig	movlb	5	;Bank5
01682 033A 087C 		MOVF	Param7C,W
01683 033B 0225 		SUBWF	S2SigOutTime,W
01684 033C 		SKPZ
01684 033C 1D03      M		BTFSS	STATUS,Z		BTFSS	STATUS,Z
01685 033D 3205 		bra	S2Copy7CToSig_1
01686 033E 087D 		MOVF	Param7D,W
01687 033F 0226 		SUBWF	S2SigOutTimeH,W
01688 0340 0020 		movlb	0	;Bank0
01689 0341 		SKPNZ
01689 0341 1903      M		BTFSC	STATUS,Z		BTFSC	STATUS,Z
01690 0342 0008 		return
01691 0343 	;
01692 0343 	;SigOutTimeH:SigOutTime = Param7D:Param7C
01693 0343 138B 	S2Copy7CToSig_1	bcf	INTCON,GIE
01694 0344 1B8B 		btfsc	INTCON,GIE
01695 0345 33FD 		bra	S2Copy7CToSig_1
01696 0346 	;
01697 0346 0025 		movlb	5	;Bank5
01698 0347 087C 		MOVF	Param7C,W
01699 0348 00A5 		MOVWF	S2SigOutTime
01700 0349 087D 		MOVF	Param7D,W
01701 034A 00A6 		MOVWF	S2SigOutTimeH
01702 034B 178B 		bsf	INTCON,GIE
01703 034C 	;
01704 034C 0020 		movlb	0	;Bank0
01705 034D 0008 		return
01706 034E 	;
01707 034E 	;=========================================================================
01708 034E 	; Copy Position to Destination for Servo 1
01709 034E 	; 
01710 034E 0025 	S1CopyPosToDest	movlb	5	;Bank5
01711 034F 1AA2 		btfsc	S1SMRevFlag
01712 0350 3206 		bra	S1CopyPos2ToDest
01713 0351 	;
01714 0351 0020 	S1CopyPos1ToDest	movlb	0	;Bank0
01715 0352 0849 		movf	S1Position1+1,W
01716 0353 00BF 		movwf	S1Dest+1
01717 0354 0848 		movf	S1Position1,W
01718 0355 00BE 		movwf	S1Dest
01719 0356 0008 		return
01720 0357 	;
01721 0357 0020 	S1CopyPos2ToDest	movlb	0	;Bank0
01722 0358 084B 		movf	S1Position2+1,W
01723 0359 00BF 		movwf	S1Dest+1
01724 035A 084A 		movf	S1Position2,W
01725 035B 00BE 		movwf	S1Dest
01726 035C 0008 		return
01727 035D 	;
01728 035D 	;=====================================
01729 035D 	; Copy Temp (Param7C/Param7D) to Destination for any Servo 
RocketServo2.asm                                                      Page: 19
/Users/davidflynn/Projects/Rocket-Servo/Firmware RS2 Rev nc/

01730 035D 	; Servo 1 has priority
01731 035D 	;
01732 035D 0020 	CopyTempToDest	movlb	0	;Bank 0
01733 035E 1946 		btfsc	S1Active
01734 035F 3203 		bra	S1CopyTempToDest
01735 0360 19C6 		btfsc	S2Active
01736 0361 3207 		bra	S2CopyTempToDest
01737 0362 0008 		return
01738 0363 	;
01739 0363 	;=====================================
01740 0363 	; Copy Temp (Param7C/Param7D) to Destination for Servo 1
01741 0363 	;
01742 0363 0020 	S1CopyTempToDest	movlb	0	;Bank0
01743 0364 087D 		movf	Param7D,W
01744 0365 00BF 		movwf	S1Dest+1
01745 0366 087C 		movf	Param7C,W
01746 0367 00BE 		movwf	S1Dest
01747 0368 0008 		return
01748 0369 	;
01749 0369 	;=====================================
01750 0369 	; Copy Temp (Param7C/Param7D) to Destination for Servo 2
01751 0369 	;
01752 0369 0020 	S2CopyTempToDest	movlb	0	;Bank0
01753 036A 087D 		movf	Param7D,W
01754 036B 00C3 		movwf	S2Dest+1
01755 036C 087C 		movf	Param7C,W
01756 036D 00C2 		movwf	S2Dest
01757 036E 0008 		return
01758 036F 	;
01759 036F 	;====================================
01760 036F 	; Copy Position to Temp (Param7c/Param7D) for any Servo
01761 036F 	;
01762 036F 1946 	CopyPosToTemp	btfsc	S1Active
01763 0370 3203 		bra	S1CopyPosToTemp
01764 0371 19C6 		btfsc	S2Active
01765 0372 3210 		bra	S2CopyPosToTemp
01766 0373 0008 		return
01767 0374 	;
01768 0374 	;====================================
01769 0374 	; Copy Position to Temp (Param7c/Param7D) for Servo 1
01770 0374 	;
01771 0374 0025 	S1CopyPosToTemp	movlb	5	;Bank5
01772 0375 1AA2 		btfsc	S1SMRevFlag
01773 0376 3206 		bra	S1CopyPos2ToTemp
01774 0377 	;
01775 0377 0020 	S1CopyPos1ToTemp	movlb	0	;Bank0
01776 0378 0849 		movf	S1Position1+1,W
01777 0379 00FD 		movwf	Param7D
01778 037A 0848 		movf	S1Position1,W
01779 037B 00FC 		movwf	Param7C
01780 037C 0008 		return
01781 037D 	;
01782 037D 0020 	S1CopyPos2ToTemp	movlb	0	;Bank0
01783 037E 084B 		movf	S1Position2+1,W
01784 037F 00FD 		movwf	Param7D
01785 0380 084A 		movf	S1Position2,W
01786 0381 00FC 		movwf	Param7C
01787 0382 0008 		return
01788 0383 	;
01789 0383 	;=====================================
01790 0383 	; Copy Position to Temp (Param7c/Param7D) for Servo 2
01791 0383 	;
01792 0383 0025 	S2CopyPosToTemp	movlb	5	;Bank5
01793 0384 1AA7 		btfsc	S2SMRevFlag
01794 0385 3206 		bra	S2CopyPos2ToTemp
01795 0386 	;
01796 0386 	;
01797 0386 0020 	S2CopyPos1ToTemp	movlb	0	;Bank0
01798 0387 084D 		movf	S2Position1+1,W
01799 0388 00FD 		movwf	Param7D
01800 0389 084C 		movf	S2Position1,W
01801 038A 00FC 		movwf	Param7C
01802 038B 0008 		return
01803 038C 	;
01804 038C 0020 	S2CopyPos2ToTemp	movlb	0	;Bank0
01805 038D 084F 		movf	S2Position2+1,W
01806 038E 00FD 		movwf	Param7D
01807 038F 084E 		movf	S2Position2,W
01808 0390 00FC 		movwf	Param7C
01809 0391 0008 		return
01810 0392 	;
01811 0392 	;=====================================
01812 0392 	; Copy Temp (Param7c/Param7D) to Position for any Servo
01813 0392 	;
01814 0392 1946 	CopyTempToPos	btfsc	S1Active
01815 0393 3203 		bra	S1CopyTempToPos
01816 0394 19C6 		btfsc	S2Active
01817 0395 3210 		bra	S2CopyTempToPos
01818 0396 0008 		return
01819 0397 	;
01820 0397 	;=====================================
01821 0397 	; Copy Temp (Param7c/Param7D) to Position for Servo 1
01822 0397 	;
01823 0397 0025 	S1CopyTempToPos	movlb	5	;Bank5
01824 0398 1AA2 		btfsc	S1SMRevFlag
01825 0399 3206 		bra	S1CopyTempToPos2
01826 039A 	;
01827 039A 0020 	S1CopyTempToPos1	movlb	0	;Bank0
01828 039B 087D 		movf	Param7D,W
RocketServo2.asm                                                      Page: 20
/Users/davidflynn/Projects/Rocket-Servo/Firmware RS2 Rev nc/

01829 039C 00C9 		movwf	S1Position1+1
01830 039D 087C 		movf	Param7C,W
01831 039E 00C8 		movwf	S1Position1
01832 039F 0008 		return
01833 03A0 	;
01834 03A0 0020 	S1CopyTempToPos2	movlb	0	;Bank0
01835 03A1 087D 		movf	Param7D,W
01836 03A2 00CB 		movwf	S1Position2+1
01837 03A3 087C 		movf	Param7C,W
01838 03A4 00CA 		movwf	S1Position2
01839 03A5 0008 		return
01840 03A6 	;
01841 03A6 	;====================================
01842 03A6 	; Copy Temp (Param7c/Param7D) to Position for Servo 2
01843 03A6 	;
01844 03A6 0025 	S2CopyTempToPos	movlb	5	;Bank5
01845 03A7 1AA7 		btfsc	S2SMRevFlag
01846 03A8 3206 		bra	S2CopyTempToPos2
01847 03A9 	;
01848 03A9 0020 	S2CopyTempToPos1	movlb	0	;Bank0
01849 03AA 087D 		movf	Param7D,W
01850 03AB 00CD 		movwf	S2Position1+1
01851 03AC 087C 		movf	Param7C,W
01852 03AD 00CC 		movwf	S2Position1
01853 03AE 0008 		return
01854 03AF 	;
01855 03AF 0020 	S2CopyTempToPos2	movlb	0	;Bank0
01856 03B0 087D 		movf	Param7D,W
01857 03B1 00CF 		movwf	S2Position2+1
01858 03B2 087C 		movf	Param7C,W
01859 03B3 00CE 		movwf	S2Position2
01860 03B4 0008 		return
01861 03B5 	;
01862 03B5 	;=========================================================================
01863 03B5 	; Copy Position to Destination for Servo 2
01864 03B5 	;
01865 03B5 0025 	S2CopyPosToDest	movlb	5	;Bank5
01866 03B6 1AA7 		btfsc	S2SMRevFlag
01867 03B7 3206 		bra	S2CopyPos2ToDest
01868 03B8 	;
01869 03B8 0020 	S2CopyPos1ToDest	movlb	0	;Bank0
01870 03B9 084D 		movf	S2Position1+1,W
01871 03BA 00C3 		movwf	S2Dest+1
01872 03BB 084C 		movf	S2Position1,W
01873 03BC 00C2 		movwf	S2Dest
01874 03BD 0008 		return
01875 03BE 	;
01876 03BE 	;
01877 03BE 0020 	S2CopyPos2ToDest	movlb	0	;Bank0
01878 03BF 084F 		movf	S2Position2+1,W
01879 03C0 00C3 		movwf	S2Dest+1
01880 03C1 084E 		movf	S2Position2,W
01881 03C2 00C2 		movwf	S2Dest
01882 03C3 0008 		return
01883 03C4 	;
01884 03C4 	;=========================================================================================
01885 03C4 	;=========================================================================================
01886 03C4 	; 
01887 03C4 0021 	GetIdleCurrent	movlb	1	;Bank 1
01888 03C5 14AC 		bsf	AN1_Semaphore
01889 03C6 0826 		movf	AN1_DataL,W
01890 03C7 00A8 		movwf	IDleCurrent
01891 03C8 0827 		movf	AN1_DataH,W
01892 03C9 00A9 		movwf	IDleCurrent+1
01893 03CA 10AC 		bcf	AN1_Semaphore
01894 03CB 0020 		movlb	0	;Bank 0
01895 03CC 0008 		return
01896 03CD 	;
01897 03CD 	;=========================================================================================
01898 03CD 	;
01899 03CD 0021 	ClearPeakCurrent	movlb	1	;Bank 1
01900 03CE 01AA 		clrf	PeakCurrent
01901 03CF 01AB 		clrf	PeakCurrent+1
01902 03D0 0020 		movlb	0	;Bank 0
01903 03D1 0008 		return
01904 03D2 	;
01905 03D2 	;=========================================================================================
01906 03D2 	; if AN1_Data-IDleCurrent>PeakCurrent then PeakCurrent=AN1_Data-IDleCurrent
01907 03D2 	;
01908 03D2 0021 	GetPeakCurrect	movlb	1	;Bank 1
01909 03D3 14AC 		bsf	AN1_Semaphore
01910 03D4 	;
01911 03D4 	;Param7C:Param7D := AN1_Data - IDleCurrent
01912 03D4 0828 		movf	IDleCurrent,W
01913 03D5 0226 		subwf	AN1_DataL,W
01914 03D6 00FC 		movwf	Param7C
01915 03D7 0829 		movf	IDleCurrent+1,W
01916 03D8 3B27 		subwfb	AN1_DataH,W
01917 03D9 00FD 		movwf	Param7D
01918 03DA 1BFD 		btfsc	Param7D,7	;Is negative, current < IdleCurrent?
01919 03DB 320A 		bra	GetPeakCurrect_1	; Yes, current is less than idle current
01920 03DC 	;
01921 03DC 087C 		movf	Param7C,W
01922 03DD 022A 		subwf	PeakCurrent,W
01923 03DE 087D 		movf	Param7D,W
01924 03DF 3B2B 		subwfb	PeakCurrent+1,W
01925 03E0 		SKPB		;New > Old?
01925 03E0 1803      M		BTFSC	STATUS,C		BTFSC	STATUS,C
01926 03E1 3204 		bra	GetPeakCurrect_1	; No
RocketServo2.asm                                                      Page: 21
/Users/davidflynn/Projects/Rocket-Servo/Firmware RS2 Rev nc/

01927 03E2 	;
01928 03E2 	; PeakCurrent := new value
01929 03E2 087C 		movf	Param7C,W
01930 03E3 00AA 		movwf	PeakCurrent
01931 03E4 087D 		movf	Param7D,W
01932 03E5 00AB 		movwf	PeakCurrent+1
01933 03E6 	;
01934 03E6 10AC 	GetPeakCurrect_1	bcf	AN1_Semaphore
01935 03E7 0020 		movlb	0	;Bank 0
01936 03E8 0008 		return
01937 03E9 	;	
01938 03E9 	;=========================================================================================
01939 03E9 	; Read AN0, Must call ReadAN0_ColdStart first
01940 03E9 	; Exit: 10bit analog in 7D:7C
01941 03E9 	;
01942 03E9 00A0 	ADCON1Value	equ	b'10100000'	;Right Just, Fosc/32, Vss, Vdd
01943 03E9 0001 	ADCON1_AN0	equ	b'00000001'	;AN0, ADC Enabled
01944 03E9 0005 	ADCON1_AN1	equ	b'00000101'	;AN1, ADC Enabled
01945 03E9 	;
01946 03E9 0021 	Init_ADC	movlb	1	;bank 1
01947 03EA 1711 		bsf	PIE1,ADIE
01948 03EB 0020 		movlb	0	;bank 0
01949 03EC 1311 		bcf	PIR1,ADIF
01950 03ED 	;
01951 03ED 	;------------------------
01952 03ED 	;
01953 03ED 0021 		movlb	1	;bank 1
01954 03EE 30A0 		MOVLW	ADCON1Value
01955 03EF 009E 		MOVWF	ADCON1
01956 03F0 3001 		MOVLW	ADCON1_AN0	;Select AN0
01957 03F1 009D 		MOVWF	ADCON0
01958 03F2 0000 		nop		;4uS delay
01959 03F3 0000 		nop
01960 03F4 0000 		nop
01961 03F5 0000 		nop
01962 03F6 0000 		nop
01963 03F7 0000 		nop
01964 03F8 0000 		nop
01965 03F9 0000 		nop
01966 03FA 149D 		BSF	ADCON0,ADGO
01967 03FB 0020 		movlb	0	;bank 0
01968 03FC 0008 		Return
01969 03FD 	;
01970 03FD 	;---------------------------
01971 03FD 	; Interupt service routine
01972 03FD 	;
01973 03FD 0020 	IRQ_ADC	movlb	0	;bank 0
01974 03FE 1311 		bcf	PIR1,ADIF
01975 03FF 	;
01976 03FF 0021 		movlb	1	;bank 1
01977 0400 191D 		btfsc	ADCON0,2	;AN0 is active?
01978 0401 3208 		bra	IRQ_ADC_AN1	; No, go handle AN1
01979 0402 	;
01980 0402 	; AN0 just finished
01981 0402 081C 		MOVF	ADRESH,W
01982 0403 00A1 		MOVWF	AN0_RawH
01983 0404 081B 		MOVF	ADRESL,W
01984 0405 00A0 		MOVWF	AN0_RawL
01985 0406 142D 		bsf	AN0_NewRawData
01986 0407 3005 		movlw	ADCON1_AN1	;Sample and start conversion of AN1
01987 0408 009D 		movwf	ADCON0
01988 0409 3207 		bra	SampleTimer
01989 040A 		bra	SampleTimer
01990 040A 	;
01991 040A 	; AN1 just finished
01992 040A 081C 	IRQ_ADC_AN1	MOVF	ADRESH,W
01993 040B 00A3 		MOVWF	AN1_RawH
01994 040C 081B 		MOVF	ADRESL,W
01995 040D 00A2 		MOVWF	AN1_RawL
01996 040E 14AD 		bsf	AN1_NewRawData
01997 040F 3001 		movlw	ADCON1_AN0	;Sample and start conversion of AN0
01998 0410 009D 		movwf	ADCON0
01999 0411 	;
02000 0411 0000 	SampleTimer	nop		;4uS delay
02001 0412 0000 		nop
02002 0413 0000 		nop
02003 0414 0000 		nop
02004 0415 0000 		nop
02005 0416 0000 		nop
02006 0417 0000 		nop
02007 0418 0000 		nop
02008 0419 149D 		bsf	ADCON0,ADGO
02009 041A 	;
02010 041A 0021 	UpdateANData	movlb	1	;bank 1
02011 041B 182C 		btfsc	AN0_Semaphore
02012 041C 3208 		bra	UpdateANData_1
02013 041D 1C2D 		btfss	AN0_NewRawData
02014 041E 3206 		bra	UpdateANData_1
02015 041F 0820 		movf	AN0_RawL,W
02016 0420 00A4 		movwf	AN0_DataL
02017 0421 0821 		movf	AN0_RawH,W
02018 0422 00A5 		movwf	AN0_DataH
02019 0423 102D 		bcf	AN0_NewRawData
02020 0424 142E 		bsf	AN0_NewData
02021 0425 	;
02022 0425 18AC 	UpdateANData_1	btfsc	AN1_Semaphore
02023 0426 3208 		bra	UpdateANData_End
02024 0427 1CAD 		btfss	AN1_NewRawData
02025 0428 3206 		bra	UpdateANData_End
RocketServo2.asm                                                      Page: 22
/Users/davidflynn/Projects/Rocket-Servo/Firmware RS2 Rev nc/

02026 0429 0822 		movf	AN1_RawL,W
02027 042A 00A6 		movwf	AN1_DataL
02028 042B 0823 		movf	AN1_RawH,W
02029 042C 00A7 		movwf	AN1_DataH
02030 042D 10AD 		bcf	AN1_NewRawData
02031 042E 14AE 		bsf	AN1_NewData
02032 042F 	;	
02033 042F 	UpdateANData_End:
02034 042F 	;
02035 042F 285B 		goto	IRQ_ADC_Return
02036 0430 	;
02037 0430 	;=========================================================================================
02038 0430 	;=========================================================================================
02039 0430 	; Set CCP1 to go high in 0x100 clocks
02040 0430 	;
02041 0430 0025 	S1StartServo	movlb	5	;bank 5
02042 0431 1E22 		BTFSS	S1ServoOff	;Servo is active?
02043 0432 3219 		bra	S1StartServo_End	; yes, don't start it again
02044 0433 1222 		BCF	S1ServoOff
02045 0434 	;
02046 0434 	; Initialize to normal position
02047 0434 12A2 		bcf	S1SMRevFlag	;forward
02048 0435 0020 		movlb	0	;Bank 0
02049 0436 12C6 		bcf	LED2Flag
02050 0437 	;
02051 0437 234E 		call	S1CopyPosToDest
02052 0438 2480 		call	S1SetDestAsCur
02053 0439 2324 		call	S1Copy7CToSig
02054 043A 	;
02055 043A 0020 		movlb	0	;Bank 0	
02056 043B 3064 		movlw	.100	;start in 0x100 clocks
02057 043C 0716 		addwf	TMR1L,W
02058 043D 0025 		movlb	0x05                   ;Bank 5
02059 043E 0091 		movwf	CCPR1L
02060 043F 0020 		movlb	0	;Bank 0	
02061 0440 3000 		movlw	0
02062 0441 3D17 		addwfc	TMR1H,W
02063 0442 0025 		movlb	0x05                   ;Bank 5
02064 0443 0092 		movwf	CCPR1H
02065 0444 	;
02066 0444 3008 		MOVLW	CCPnCON_Set
02067 0445 0093 		MOVWF	CCP1CON	;go high on match
02068 0446 0020 		movlb	0	;Bank 0
02069 0447 302C 		movlw	Low ServoMoveTime	;At power up move to commanded position
02070 0448 00B2 		movwf	Servo1MoveTimerLo
02071 0449 3001 		movlw	High ServoMoveTime
02072 044A 00B3 		movwf	Servo1MoveTimerHi
02073 044B 1150 		bcf	S1InPosition
02074 044C 	;
02075 044C 0020 	S1StartServo_End	movlb	0x00	;Bank 0
02076 044D 0008 		RETURN
02077 044E 	;
02078 044E 	;=========================================================================================
02079 044E 	; Set CCP1 to go high in 0x100 clocks
02080 044E 	;
02081 044E 0025 	S2StartServo	movlb	5	;bank 5
02082 044F 1E27 		BTFSS	S2ServoOff	;Servo is active?
02083 0450 3219 		bra	S2StartServo_End	; yes, don't start it again
02084 0451 1227 		BCF	S2ServoOff
02085 0452 	;
02086 0452 	; Initialize to normal position
02087 0452 12A7 		bcf	S2SMRevFlag
02088 0453 0020 		movlb	0	;Bank 0
02089 0454 1346 		bcf	LED3Flag
02090 0455 	;
02091 0455 23B5 		call	S2CopyPosToDest
02092 0456 2488 		call	S2SetDestAsCur
02093 0457 2339 		call	S2Copy7CToSig
02094 0458 	;
02095 0458 0020 		movlb	0	;Bank 0	
02096 0459 3064 		movlw	.100	;start in 0x100 clocks
02097 045A 0716 		addwf	TMR1L,W
02098 045B 0025 		movlb	0x05                   ;Bank 5
02099 045C 0098 		movwf	CCPR2L
02100 045D 0020 		movlb	0	;Bank 0	
02101 045E 3000 		movlw	0
02102 045F 3D17 		addwfc	TMR1H,W
02103 0460 0025 		movlb	0x05                   ;Bank 5
02104 0461 0099 		movwf	CCPR2H
02105 0462 	;
02106 0462 3008 		MOVLW	CCPnCON_Set
02107 0463 009A 		MOVWF	CCP2CON	;go high on match
02108 0464 0020 		movlb	0x00	;Bank 0
02109 0465 302C 		movlw	Low ServoMoveTime	;At power up move to commanded position
02110 0466 00B8 		movwf	Servo2MoveTimerLo
02111 0467 3001 		movlw	High ServoMoveTime
02112 0468 00B9 		movwf	Servo2MoveTimerHi
02113 0469 1350 		bcf	S2InPosition
02114 046A 	;
02115 046A 0020 	S2StartServo_End	movlb	0x00	;Bank 0
02116 046B 0008 		RETURN
02117 046C 	;
02118 046C 	;=========================================================================================
02119 046C 	;
02120 046C 0020 	S1SetMiddlePosition	movlb	0	;bank 0
02121 046D 30B8 		MOVLW	LOW kMidPulseWidth
02122 046E 00FC 		MOVWF	Param7C
02123 046F 00BE 		movwf	S1Dest
02124 0470 00C0 		movwf	S1CurPos
RocketServo2.asm                                                      Page: 23
/Users/davidflynn/Projects/Rocket-Servo/Firmware RS2 Rev nc/

02125 0471 300B 		MOVLW	HIGH kMidPulseWidth
02126 0472 00FD 		MOVWF	Param7D
02127 0473 00BF 		movwf	S1Dest+1
02128 0474 00C1 		movwf	S1CurPos+1
02129 0475 0008 		Return
02130 0476 	;
02131 0476 	;=========================================================================================
02132 0476 	;
02133 0476 0020 	S2SetMiddlePosition	movlb	0	;bank 0
02134 0477 30B8 		MOVLW	LOW kMidPulseWidth
02135 0478 00FC 		MOVWF	Param7C
02136 0479 00C2 		movwf	S2Dest
02137 047A 00C4 		movwf	S2CurPos
02138 047B 300B 		MOVLW	HIGH kMidPulseWidth
02139 047C 00FD 		MOVWF	Param7D
02140 047D 00C3 		movwf	S2Dest+1
02141 047E 00C5 		movwf	S2CurPos+1
02142 047F 0008 		Return
02143 0480 	;
02144 0480 	;=========================================================================================
02145 0480 	;
02146 0480 0020 	S1SetDestAsCur	movlb	0	;bank 0
02147 0481 083E 		movf	S1Dest,W
02148 0482 00FC 		MOVWF	Param7C
02149 0483 00C0 		movwf	S1CurPos
02150 0484 083F 		movf	S1Dest+1,W
02151 0485 00FD 		MOVWF	Param7D
02152 0486 00C1 		movwf	S1CurPos+1
02153 0487 0008 		Return
02154 0488 	;
02155 0488 	;=========================================================================================
02156 0488 	;
02157 0488 0020 	S2SetDestAsCur	movlb	0	;bank 0
02158 0489 0842 		movf	S2Dest,W
02159 048A 00FC 		MOVWF	Param7C
02160 048B 00C4 		movwf	S2CurPos
02161 048C 0843 		movf	S2Dest+1,W
02162 048D 00FD 		MOVWF	Param7D
02163 048E 00C5 		movwf	S2CurPos+1
02164 048F 0008 		Return
02165 0490 	;
02166 0490 	;=========================================================================================
02167 0490 	; ClampInt(Param7D:Param7C,kMinPulseWidth,kMaxPulseWidth)
02168 0490 	;
02169 0490 	; Entry: Param7D:Param7C
02170 0490 	; Exit: Param7D:Param7C=ClampInt(Param7D:Param7C,kMinPulseWidth,kMaxPulseWidth)
02171 0490 	;
02172 0490 3010 	ClampInt	MOVLW	high kMaxPulseWidth
02173 0491 027D 		SUBWF	Param7D,W	;7D-kMaxPulseWidth
02174 0492 		SKPNB		;7D<Max?
02174 0492 1C03      M		BTFSS	STATUS,C		BTFSS	STATUS,C
02175 0493 3209 		bra	ClampInt_1	; Yes
02176 0494 		SKPZ		;7D=Max?
02176 0494 1D03      M		BTFSS	STATUS,Z		BTFSS	STATUS,Z
02177 0495 3216 		bra	ClampInt_tooHigh	; No, its greater.
02178 0496 3068 		MOVLW	low kMaxPulseWidth	; Yes, MSB was equal check LSB
02179 0497 027C 		SUBWF	Param7C,W	;7C-kMaxPulseWidth
02180 0498 		SKPNZ		;=kMaxPulseWidth
02180 0498 1903      M		BTFSC	STATUS,Z		BTFSC	STATUS,Z
02181 0499 0008 		RETURN		;Yes
02182 049A 		SKPB		;7C<Max?
02182 049A 1803      M		BTFSC	STATUS,C		BTFSC	STATUS,C
02183 049B 3210 		bra	ClampInt_tooHigh	; No
02184 049C 0008 		RETURN		; Yes
02185 049D 	;
02186 049D 3007 	ClampInt_1	MOVLW	high kMinPulseWidth
02187 049E 027D 		SUBWF	Param7D,W	;7D-kMinPulseWidth
02188 049F 		SKPNB		;7D<Min?
02188 049F 1C03      M		BTFSS	STATUS,C		BTFSS	STATUS,C
02189 04A0 3206 		bra	ClampInt_tooLow	; Yes
02190 04A1 		SKPZ		;=Min?
02190 04A1 1D03      M		BTFSS	STATUS,Z		BTFSS	STATUS,Z
02191 04A2 0008 		RETURN		; No, 7D>kMinPulseWidth
02192 04A3 3008 		MOVLW	low kMinPulseWidth	; Yes, MSB is a match
02193 04A4 027C 		SUBWF	Param7C,W	;7C-kMinPulseWidth
02194 04A5 		SKPB		;7C>=Min?
02194 04A5 1803      M		BTFSC	STATUS,C		BTFSC	STATUS,C
02195 04A6 0008 		RETURN		; Yes
02196 04A7 	;
02197 04A7 3008 	ClampInt_tooLow	MOVLW	low kMinPulseWidth
02198 04A8 00FC 		MOVWF	Param7C
02199 04A9 3007 		MOVLW	high kMinPulseWidth
02200 04AA 00FD 		MOVWF	Param7D
02201 04AB 0008 		RETURN
02202 04AC 	;
02203 04AC 3068 	ClampInt_tooHigh	MOVLW	low kMaxPulseWidth
02204 04AD 00FC 		MOVWF	Param7C
02205 04AE 3010 		MOVLW	high kMaxPulseWidth
02206 04AF 00FD 		MOVWF	Param7D
02207 04B0 0008 		RETURN
02208 04B1 	;
02209 04B1 	;=====================================================================================
02210 04B1 	; Less or Equal
02211 04B1 	;
02212 04B1 	; Entry: Param7D:Param7C, Param79:Param78
02213 04B1 	; Exit: Param77:0=Param7D:Param7C<=Param79:Param78
02214 04B1 	;
02215 04B1 01F7 	Param7D_LE_Param79	CLRF	Param77	;default to >
02216 04B2 0879 		MOVF	Param79,W
RocketServo2.asm                                                      Page: 24
/Users/davidflynn/Projects/Rocket-Servo/Firmware RS2 Rev nc/

02217 04B3 027D 		SUBWF	Param7D,W	;Param7D-Param79
02218 04B4 		SKPNB		;Param7D<Param79?
02218 04B4 1C03      M		BTFSS	STATUS,C		BTFSS	STATUS,C
02219 04B5 3208 		bra	SetTrue	; Yes
02220 04B6 		SKPZ		;Param7D>Param79?
02220 04B6 1D03      M		BTFSS	STATUS,Z		BTFSS	STATUS,Z
02221 04B7 0008 		RETURN		; Yes
02222 04B8 0878 		MOVF	Param78,W	; No, MSB is a match
02223 04B9 027C 		SUBWF	Param7C,W	;Param7C-Param78
02224 04BA 		SKPNB		;Param7C<Param78?
02224 04BA 1C03      M		BTFSS	STATUS,C		BTFSS	STATUS,C
02225 04BB 3202 		bra	SetTrue	; Yes
02226 04BC 		SKPZ		;LSBs then same?
02226 04BC 1D03      M		BTFSS	STATUS,Z		BTFSS	STATUS,Z
02227 04BD 0008 		RETURN		; No
02228 04BE 	;
02229 04BE 1477 	SetTrue	BSF	Param77,0
02230 04BF 0008 		RETURN
02231 04C0 	;
02232 04C0 		if oldCode
02331 04C0 		endif
02332 04C0 	;=============================================================================================
02333 04C0 	;==============================================================================================
02334 04C0 	;
02335 04C0 		include	F1847_Common.inc
00001 04C0 	;=========================================================================================
00002 04C0 	; Commonly used routines PIC16F1847 version
00003 04C0 	;
00004 04C0 	;    Filename:      F1847 Common.inc
00005 04C0 	;    Date:          12/21/2025
00006 04C0 	;    File Version:  1.0.3
00007 04C0 	;
00008 04C0 	;    Author:        David M. Flynn
00009 04C0 	;    Company:       Oxford V.U.E., Inc.
00010 04C0 	;    E-Mail:        dflynn@oxfordvue.com
00011 04C0 	;    Web Site:      http://www.oxfordvue.com/
00012 04C0 	;
00013 04C0 	;=========================================================================================
00014 04C0 	;    History:
00015 04C0 	;
00016 04C0 	; 1.0.3 12/21/2025	SaveParams set Bank0
00017 04C0 	; 1.0.2  4/6/2019	Fixes to EERead/EEwrite
00018 04C0 	; 1.0.2 2/16/2019	Fix: added FSR0H to DecTimer.
00019 04C0 	; 1.0.1 11/21/2015	Updates DecTimer.
00020 04C0 	; 1.0   11/16/2013	Updated from F648A Common.inc
00021 04C0 	;
00022 04C0 	;=========================================================================================
00023 04C0 	; Routines:
00024 04C0 	;
00025 04C0 	; ClearRam	(2+0) Clears all RAM, call once before initializing variables, FSR0
00026 04C0 	; CopyToRam	(1+0) copy param memory (EEPROM) to ram, call once, FSR0
00027 04C0 	; SaveParams	(1+0) copy ram to param memory (EEPROM), FSR0
00028 04C0 	;
00029 04C0 	; DecTimer4	(0+0) Decrement routine for 16 bit timers, FSR0
00030 04C0 	; DecTimer3
00031 04C0 	; DecTimer2
00032 04C0 	; DecTimer1
00033 04C0 	; DecTimer	(0+0) High byte of counter address in W
00034 04C0 	;
00035 04C0 	; TestT4_Zero	Test for 16 bit timers = zero
00036 04C0 	; TestT3_Zero	If Timer is zero return Z flag,1 else Z=0
00037 04C0 	; TestT2_Zero
00038 04C0 	; TestT1_Zero
00039 04C0 	;
00040 04C0 	; Delay10uS	(0+0)Delay uS    1 cycle = 1uS, 8Mhz clock version
00041 04C0 	; Delay100uS
00042 04C0 	; Delay40uS
00043 04C0 	; DelayWuS
00044 04C0 	;
00045 04C0 	; EEReadW	(0+0) Read EEPROM address in W
00046 04C0 	; EERead	(0+0) Read EEPROM address in EEAddrTemp
00047 04C0 	; EEWriteW	(0+0) Write EEPROM address in W, Data in EEDataTemp
00048 04C0 	; EEWrite	(0+0) Write EEPROM address in EEAdrTemp, Data in EEDataTemp, FSR0
00049 04C0 	;
00050 04C0 	;=========================================================================================
00051 04C0 		ifndef UseEEParams
00053 04C0 		endif
00054 04C0 	;=========================================================================================
00055 04C0 	; Clears all RAM
00056 04C0 	; Entry: none
00057 04C0 	; Exit: none
00058 04C0 	; RAM used: All
00059 04C0 	; Calls:(2+0) ClearRam_L2
00060 04C0 	;
00061 04C0 0020 	ClearRam	MOVLB	0x00
00062 04C1 305F 		MOVLW	0x5F	;Clear 20h-7Eh, 95 bytes
00063 04C2 00FF 		MOVWF	Param7F
00064 04C3 3020 		MOVLW	0x20
00065 04C4 0084 		MOVWF	FSR0
00066 04C5 0185 		CLRF	FSR0H
00067 04C6 24DA 		CALL	ClearRam_L2
00068 04C7 	;
00069 04C7 3050 		MOVLW	0x50	;Clear A0h-EFh, 80 bytes
00070 04C8 00FF 		MOVWF	Param7F
00071 04C9 30A0 		MOVLW	0xA0
00072 04CA 0084 		MOVWF	FSR0
00073 04CB 24DA 		CALL	ClearRam_L2
00074 04CC 	;
00075 04CC 0A85 		INCF	FSR0H,F	
RocketServo2.asm                                                      Page: 25
/Users/davidflynn/Projects/Rocket-Servo/Firmware RS2 Rev nc/

00076 04CD 24D1 		CALL	ClearRam_2	;Banks 2,3
00077 04CE 0A85 		INCF	FSR0H,F	
00078 04CF 24D1 		CALL	ClearRam_2	;Banks 4,5
00079 04D0 0A85 		INCF	FSR0H,F	;Banks 6,7
00080 04D1 	;	
00081 04D1 3050 	ClearRam_2	MOVLW	0x50	;Clear 120h-16Fh, 80 bytes
00082 04D2 00FF 		MOVWF	Param7F
00083 04D3 3020 		MOVLW	0x20
00084 04D4 0084 		MOVWF	FSR0
00085 04D5 24DA 		CALL	ClearRam_L2
00086 04D6 	;
00087 04D6 3050 		MOVLW	0x50	;Clear A0h-EFh, 80 bytes
00088 04D7 00FF 		MOVWF	Param7F
00089 04D8 30A0 		MOVLW	0xA0
00090 04D9 0084 		MOVWF	FSR0
00091 04DA 	;
00092 04DA 0180 	ClearRam_L2	CLRF	INDF0
00093 04DB 0A84 		INCF	FSR0,F
00094 04DC 0BFF 		DECFSZ	Param7F,F
00095 04DD 33FC 		bra	ClearRam_L2
00096 04DE 0008 		RETURN
00097 04DF 	;
00098 04DF 		if UseEEParams
00099 04DF 	;==========================================================================
00100 04DF 	; copy param memory to ram
00101 04DF 	;
00102 04DF 3000 	CopyToRam	MOVLW	nvFirstParamByte
00103 04E0 00AE 		MOVWF	EEAddrTemp
00104 04E1 3048 		MOVLW	FirstRAMParam
00105 04E2 0084 		MOVWF	FSR0L
00106 04E3 0185 		CLRF	FSR0H
00107 04E4 252B 	CopyToRam_L1	CALL	EERead
00108 04E5 001A 		movwi	FSR0++
00109 04E6 0AAE 		INCF	EEAddrTemp,F
00110 04E7 3051 		MOVLW	LastRAMParam+1
00111 04E8 0204 		SUBWF	FSR0L,W
00112 04E9 		SKPZ
00112 04E9 1D03      M		BTFSS	STATUS,Z		BTFSS	STATUS,Z
00113 04EA 33F9 		BRA	CopyToRam_L1
00114 04EB 0008 		RETURN
00115 04EC 	;
00116 04EC 	;===========================================================================
00117 04EC 	; copy ram to param memory
00118 04EC 	;
00119 04EC 0020 	SaveParams	MOVLB	0	;Bank0
00120 04ED 3000 		MOVLW	nvFirstParamByte
00121 04EE 00AE 		MOVWF	EEAddrTemp
00122 04EF 3048 		MOVLW	FirstRAMParam
00123 04F0 0084 		MOVWF	FSR0L
00124 04F1 0185 		CLRF	FSR0H
00125 04F2 0012 	SaveParams_L1	moviw	FSR0++
00126 04F3 00AF 		MOVWF	EEDataTemp
00127 04F4 2535 		CALL	EEWrite
00128 04F5 0AAE 		INCF	EEAddrTemp,F
00129 04F6 3051 		MOVLW	LastRAMParam+1	;last byte
00130 04F7 0204 		SUBWF	FSR0L,W
00131 04F8 		SKPZ
00131 04F8 1D03      M		BTFSS	STATUS,Z		BTFSS	STATUS,Z
00132 04F9 33F8 		BRA	SaveParams_L1
00133 04FA 0008 		RETURN
00134 04FB 	;
00135 04FB 		endif
00136 04FB 	;=====================================================================================================
00137 04FB 	;=========================================================================================================
00138 04FB 	; Decrement routine for 16 bit timers
00139 04FB 	; Set FSR0H before calling these routines.
00140 04FB 	;
00141 04FB 3037 	DecTimer4	movlw	Timer4Hi
00142 04FC 3205 		bra	DecTimer
00143 04FD 3035 	DecTimer3	movlw	Timer3Hi
00144 04FE 3203 		bra	DecTimer
00145 04FF 3033 	DecTimer2	movlw	Timer2Hi
00146 0500 3201 		bra	DecTimer
00147 0501 3031 	DecTimer1	movlw	Timer1Hi
00148 0502 	;DecTimer
00149 0502 	; entry: FSR=Timer(n)Hi
00150 0502 0084 	DecTimer	MOVWF	FSR0L
00151 0503 3000 		movlw	High Timer4Hi
00152 0504 0085 		movwf	FSR0H
00153 0505 0013 		MOVIW	FSR0--	;TimerNHi
00154 0506 0400 		IORWF	INDF0,W	;TimerNLo
00155 0507 		SKPNZ
00155 0507 1903      M		BTFSC	STATUS,Z		BTFSC	STATUS,Z
00156 0508 0008 		RETURN
00157 0509 3001 		MOVLW	0x01
00158 050A 0280 		SUBWF	INDF0,F	;TimerNLo
00159 050B 0A84 		INCF	FSR0L,F
00160 050C 0103 		CLRW
00161 050D 3B80 		SUBWFB	INDF0,F	;TimerNHi
00162 050E 0008 		RETURN
00163 050F 	;
00164 050F 	;==============================================================================================
00165 050F 	; Test for 16 bit timers = zero
00166 050F 	;If Timer is zero return Z flag,1 else Z=0
00167 050F 	;
00168 050F 0020 	TestT4_Zero	movlb	0
00169 0510 0836 		movf	Timer4Lo,W
00170 0511 0437 		iorwf	Timer4Hi,W
00171 0512 0008 		return
RocketServo2.asm                                                      Page: 26
/Users/davidflynn/Projects/Rocket-Servo/Firmware RS2 Rev nc/

00172 0513 	;
00173 0513 0020 	TestT3_Zero	movlb	0
00174 0514 0834 		movf	Timer3Lo,W
00175 0515 0435 		iorwf	Timer3Hi,W
00176 0516 0008 		return
00177 0517 	;
00178 0517 0020 	TestT2_Zero	movlb	0
00179 0518 0832 		movf	Timer2Lo,W
00180 0519 0433 		iorwf	Timer2Hi,W
00181 051A 0008 		return
00182 051B 	;
00183 051B 0020 	TestT1_Zero	movlb	0
00184 051C 0830 		movf	Timer1Lo,W
00185 051D 0431 		iorwf	Timer1Hi,W
00186 051E 0008 		return	
00187 051F 	;
00188 051F 		if oldCode
00204 051F 		endif
00205 051F 	;======================================================================================
00206 051F 	;Delay uS    1 cycle = .125uS, 32MHz clock version
00207 051F 	; RAM used: Param77
00208 051F 	; Calls:(0) none
00209 051F 	;
00210 051F 3005 	Delay10uS	MOVLW	0x05	;(2*3+5)/2=10
00211 0520 3203 		bra	DelayWuS
00212 0521 3041 	Delay100uS	MOVLW	d'65'	;(28*3+5)/2=100
00213 0522 3201 		bra	DelayWuS
00214 0523 3019 	Delay40uS	MOVLW	d'25'	;(11*3+5)=40
00215 0524 00F7 	DelayWuS	MOVWF	Param77
00216 0525 0000 	DelayWuS_Loop	nop
00217 0526 0000 		nop
00218 0527 0BF7 		DECFSZ	Param77,F
00219 0528 33FC 		bra	DelayWuS_Loop
00220 0529 0008 		RETURN
00221 052A 	;==============================================================================================
00222 052A 	; Read EEPROM
00223 052A 	; entry: EEPROM address to read in W
00224 052A 	;        Bank 0 selected
00225 052A 	; exit: W=EEDATA, Bank 0 selected
00226 052A 	;
00227 052A 00AE 	EEReadW	movwf	EEAddrTemp
00228 052B 	;
00229 052B 	;==============================================================================================
00230 052B 	; Read EEPROM
00231 052B 	; entry: EEPROM address to read in EEAddrTemp
00232 052B 	;        Bank 0 selected
00233 052B 	; exit: W=EEDATA, Bank 0 selected
00234 052B 	;
00235 052B 082E 	EERead	movf	EEAddrTemp,W
00236 052C 0023 		MOVLB	0x03	;Bank 3
00237 052D 0091 		movwf	EEADR	;Address to read
00238 052E 1315 		bcf	EECON1,CFGS	;not config mem
00239 052F 1395 		bcf	EECON1,EEPGD	;Data memory
00240 0530 1415 		bsf	EECON1,RD
00241 0531 0813 		movf	EEDAT,W	;W=EEDAT
00242 0532 0020 		MOVLB	0x00	;Bank 0
00243 0533 0008 		return
00244 0534 	;
00245 0534 	;==============================================================================================
00246 0534 	; Write EEPROM
00247 0534 	; entry: EEPROM address to write in W
00248 0534 	;        EEPROM data to write in EEDataTemp
00249 0534 	;        Bank 0 selected
00250 0534 	; exit: Bank 0 selected
00251 0534 	;
00252 0534 00AE 	EEWriteW	movwf	EEAddrTemp
00253 0535 	;
00254 0535 	;==============================================================================================
00255 0535 	; Write EEPROM
00256 0535 	; entry: EEPROM address to write in EEAdrTemp
00257 0535 	;        EEPROM data to write in EEDataTemp
00258 0535 	;        Bank 0 selected
00259 0535 	; exit: Bank 0 selected
00260 0535 	;
00261 0535 082E 	EEWrite	MOVF	EEAddrTemp,W
00262 0536 0023 		MOVLB	0x03	;Bank 3
00263 0537 0091 		movwf	EEADR	;Address to write
00264 0538 0020 		movlb	0x00	; bank 0
00265 0539 082F 		movf	EEDataTemp,W
00266 053A 0023 		movlb	0x03
00267 053B 0093 		movwf	EEDAT
00268 053C 1315 		bcf	EECON1,CFGS	;not config mem
00269 053D 1395 		bcf	EECON1,EEPGD	;Data memory
00270 053E 1515 		bsf	EECON1,WREN
00271 053F 138B 		bcf	INTCON,GIE	;Disale Ints
00272 0540 1B8B 		btfsc	INTCON,GIE
00273 0541 33FD 		bra	$-2
00274 0542 3055 		movlw	0x55
00275 0543 0096 		movwf	EECON2	;write 55
00276 0544 30AA 		movlw	0xAA
00277 0545 0096 		movwf	EECON2	;write AA
00278 0546 1495 		bsf	EECON1,WR
00279 0547 1895 	EEWriteLoop	btfsc	EECON1,WR	
00280 0548 33FE 		bra	EEWriteLoop
00281 0549 1115 		bcf	EECON1,WREN
00282 054A 178B 		bsf	INTCON,GIE
00283 054B 0020 		MOVLB	0x00	;Bank 0
00284 054C 0008 		return
00285 054D 	;
RocketServo2.asm                                                      Page: 27
/Users/davidflynn/Projects/Rocket-Servo/Firmware RS2 Rev nc/

00286 054D 	;	
00287 054D 	;=========================================================================================
00288 054D 	;=========================================================================================
00289 054D 	;
00290 054D 	;
00291 054D 	;
00292 054D 	;
02336 054D 	;
02337 054D 	;=========================================================================================
02338 054D 	;=========================================================================================
02339 054D 	;
02340 054D 	;
02341 054D 	;
02342 054D 	;
02343 054D 		END

X-Ref Table
ADCON0	009D 	Init_ADC, IRQ_ADC, IRQ_ADC_AN1, SampleTimer
ADCON1	009E 	Init_ADC
ADCON1Value	00A0 	Init_ADC
ADCON1_AN0	0001 	Init_ADC, IRQ_ADC_AN1
ADCON1_AN1	0005 	IRQ_ADC
ADGO	0001 	Init_ADC, SampleTimer
ADIE	0006 	Init_ADC
ADIF	0006 	IRQ_2, Init_ADC, IRQ_ADC
ADRESH	009C 	IRQ_ADC, IRQ_ADC_AN1
ADRESL	009B 	IRQ_ADC, IRQ_ADC_AN1
AN0_DataH	00A5 	BlinkBattVolts, SampleTimer
AN0_DataL	00A4 	BlinkBattVolts, SampleTimer
AN0_NewData	AN_NewDataFlags,0	SampleTimer
AN0_NewRawData	AN_NewRawDataFlags,0	IRQ_ADC, SampleTimer
AN0_RawH	00A1 	IRQ_ADC, SampleTimer
AN0_RawL	00A0 	IRQ_ADC, SampleTimer
AN0_Semaphore	AN_Semaphores,0	BlinkBattVolts, SampleTimer
AN1_DataH	00A7 	GetIdleCurrent, GetPeakCurrect, UpdateANData_1
AN1_DataL	00A6 	GetIdleCurrent, GetPeakCurrect, UpdateANData_1
AN1_NewData	AN_NewDataFlags,1	UpdateANData_1
AN1_NewRawData	AN_NewRawDataFlags,1	IRQ_ADC_AN1, UpdateANData_1
AN1_RawH	00A3 	IRQ_ADC_AN1, UpdateANData_1
AN1_RawL	00A2 	IRQ_ADC_AN1, UpdateANData_1
AN1_Semaphore	AN_Semaphores,1	GetIdleCurrent, GetPeakCurrect, GetPeakCurrect_1, UpdateANData_1
ANSELA	018C 	start
ANSELB	018D 	start
AN_NewDataFlags	00AE 	SampleTimer, UpdateANData_1
AN_NewRawDataFlags	00AD 	IRQ_ADC, IRQ_ADC_AN1, SampleTimer, UpdateANData_1
AN_Semaphores	00AC 	BlinkBattVolts, GetIdleCurrent, GetPeakCurrect, GetPeakCurrect_1
		SampleTimer, UpdateANData_1
APFCON0	011D 	start
ActivationTime	012C 	SetDestServo, SDS1_End
BattV_OK	SysFlags,3	TryState3, BlinkBattVolts
BlinkBattVolts ^	01FB 	TryState3
BtnChangeRate	0002 	ML_Btns_Inc, ML_Btns_Dec
BtnFlags	0046 	, MainLoop, ML_ChkBtns, ML_Btns_Inc, ML_Btns_Dec, ML_Btns_Save, ConfigLEDs
		ML_LED2_End, SetDestServo, SDS1_CmdNormal, SDS1_End, SDS2_CmdNormal, MoveActiveToCenter
		CopyTempToDest, CopyPosToTemp, CopyTempToPos, S1StartServo, S2StartServo
C	0000 	HandleState2_4, BlinkBattVolts, GetPeakCurrect, ClampInt, ClampInt_1, Param7D_LE_Param79
CCP1CON	0293 	IRQ_ADC_Return, IRQ_Servo1_1, IRQ_Servo1_OL, start, S1StartServo
CCP1IE	0002 	start
CCP1IF	0002 	IRQ_ADC_Return, IRQ_Servo1_X
CCP1M0	0000 	IRQ_Servo1_1
CCP1SEL	0000 	start
CCP2CON	029A 	IRQ_Servo1_End, IRQ_Servo2_1, IRQ_Servo2_OL, start, S2StartServo
CCP2IE	0000 	start
CCP2IF	0000 	IRQ_Servo1_End, IRQ_Servo2_X
CCP2M0	0000 	IRQ_Servo2_1
CCP2SEL	0003 	start
CCPR1H	0292 	IRQ_Servo1_1, IRQ_Servo1_OL, S1StartServo
CCPR1L	0291 	IRQ_Servo1_1, IRQ_Servo1_OL, S1StartServo
CCPR2H	0299 	IRQ_Servo2_1, IRQ_Servo2_OL, S2StartServo
CCPR2L	0298 	IRQ_Servo2_1, IRQ_Servo2_OL, S2StartServo
CCPnCON_Clr	0009 	IRQ_Servo1_1, IRQ_Servo2_1
CCPnCON_Int	000A 	IRQ_Servo1_1, IRQ_Servo1_OL, IRQ_Servo2_1, IRQ_Servo2_OL
CCPnCON_Set	0008 	IRQ_Servo1_OL, IRQ_Servo2_OL, S1StartServo, S2StartServo
CFGS	0006 	EERead, EEWrite
ClampInt ^	0490 	ML_Btns_Inc, ML_Btns_Dec
ClampInt_1 ^	049D 	ClampInt
ClampInt_tooHigh ^	04AC 	ClampInt
ClampInt_tooLow ^	04A7 	ClampInt_1
ClearPeakCurrent ^	03CD 	HandleState2
ClearRam ^	04C0 	start
ClearRam_2 ^	04D1 	ClearRam
ClearRam_L2 ^	04DA 	ClearRam, ClearRam_2, ClearRam_L2
ConfigLEDs ^	021A 	ML_Btns_End
ContEnable1	LATA,3	start, TryState3
ContEnable2	LATA,4	start, TryState3
CopyPosToTemp ^	036F 	ML_Btns_Inc, ML_Btns_Dec
CopyTempToDest ^	035D 	MoveActiveToCenter
CopyTempToPos ^	0392 	ML_Btns_Inc, ML_Btns_Dec
CopyToRam ^	04DF 	start
CopyToRam_L1 ^	04E4 	CopyToRam_L1
DataChangedFlag	BtnFlags,7	ML_Btns_Inc, ML_Btns_Dec, ML_Btns_Save, MoveActiveToCenter
DecBtnBit	PORTB,5	
DecBtnFlag	BtnFlags,1	, ML_ChkBtns, ML_Btns_Dec
DecTimer ^	0502 	, DecTimer4, DecTimer3, DecTimer2
DecTimer1 ^	0501 	
DecTimer2 ^	04FF 	
DecTimer3 ^	04FD 	
DecTimer4 ^	04FB 	
DelayWuS ^	0524 	DecTimer
RocketServo2.asm   X-Ref Table                                           Page: 28
/Users/davidflynn/Projects/Rocket-Servo/Firmware RS2 Rev nc/

DelayWuS_Loop ^	0525 	DelayWuS_Loop
DoNextState ^	01B5 	DoStateN, State2_Waiting, TryState3, TryState4, TryState5, TryState6
DoNextState2 ^	01C5 	HandleState2_2, HandleState2_3, HandleState2_4, HandleState2_4_1
DoStateN ^	0141 	ML_SkipBtns
EEADR	0191 	EERead, EEWrite
EEAddrTemp	002E 	CopyToRam, CopyToRam_L1, SaveParams, SaveParams_L1, DelayWuS_Loop
		EERead, EEWrite
EECON1	0195 	EERead, EEWrite, EEWriteLoop
EECON2	0196 	EEWrite
EEDAT	0193 	EERead, EEWrite
EEDataTemp	002F 	SaveParams_L1, EEWrite
EEPGD	0007 	EERead, EEWrite
EERead ^	052B 	CopyToRam_L1
EEWrite ^	0535 	SaveParams_L1
EEWriteLoop ^	0547 	EEWriteLoop
ErrorTime	01F4 	State3_BlinkError
F	0001 	, SystemBlink_Blinking, SystemBlink_end, LED2_DoUpdate, LED2_ContinueFlashes
		IRQ_LED2_End, LED3_DoUpdate, LED3_ContinueFlashes, IRQ_Servo1_1, IRQ_Servo1_OL
		IRQ_Servo2_1, IRQ_Servo2_OL, MainLoop, ML_Btns_Inc, ML_Btns_Dec, ML_SkipBtns, DoNextState
		DoNextState2, BlinkBattVolts, MoveServo1, MS1_1, MS1_Move_It_Neg, MoveServo2, MS2_1
		MS2_Move_It_Neg, SDS1_Rev_Debounce, SDS1_CmdNormal, SDS1_Norm_Debounce, SDS2_Rev_Debounce
		SDS2_CmdNormal, SDS2_Norm_Debounce, ClearRam, ClearRam_L2, CopyToRam_L1, SaveParams_L1
		DecTimer, DelayWuS_Loop
FSR0	0004 	ClearRam, ClearRam_2, ClearRam_L2
FSR0H	0005 	, ClearRam, CopyToRam, SaveParams, DecTimer
FSR0L	0004 	CopyToRam, CopyToRam_L1, SaveParams, SaveParams_L1, DecTimer
FirstRAMParam	S1Position1	CopyToRam, SaveParams
GIE	0007 	start, S1Copy7CToSig_1, S2Copy7CToSig_1, EEWrite, EEWriteLoop
GetIdleCurrent ^	03C4 	HandleState2
GetPeakCurrect ^	03D2 	HandleState2_2, HandleState2_3, HandleState2_4
GetPeakCurrect_1 ^	03E6 	GetPeakCurrect
HandleState2 ^	01B7 	DoStateN
HandleState2_2 ^	01C7 	HandleState2
HandleState2_3 ^	01D7 	HandleState2_2
HandleState2_4 ^	01E5 	HandleState2_3
HandleState2_4_1 ^	01F6 	HandleState2_4
HandleState2_5 ^	01F9 	HandleState2_4
HoldOpen	0000 	SDS1_CmdNormal
IDleCurrent	00A8 	GetIdleCurrent, GetPeakCurrect
INDF0	0000 	ClearRam_L2, DecTimer
INTCON	000B 	start, S1Copy7CToSig_1, S2Copy7CToSig_1, EEWrite, EEWriteLoop
IRQ_2 ^	0058 	
IRQ_ADC ^	03FD 	IRQ_2
IRQ_ADC_AN1 ^	040A 	IRQ_ADC
IRQ_ADC_Return ^	005B 	UpdateANData_End
IRQ_LED2_End ^	0041 	SystemBlink_end, LED2_DoUpdate
IRQ_LED3_End ^	0057 	IRQ_LED2_End, LED3_DoUpdate
IRQ_Servo1_1 ^	0064 	IRQ_ADC_Return
IRQ_Servo1_End ^	0089 	IRQ_ADC_Return
IRQ_Servo1_OL ^	007B 	IRQ_Servo1_1
IRQ_Servo1_X ^	0087 	IRQ_ADC_Return, IRQ_Servo1_1
IRQ_Servo2_1 ^	0092 	IRQ_Servo1_End
IRQ_Servo2_End ^	00B7 	IRQ_Servo1_End
IRQ_Servo2_OL ^	00A9 	IRQ_Servo2_1
IRQ_Servo2_X ^	00B5 	IRQ_Servo1_End, IRQ_Servo2_1
IncBtnBit	PORTA,2	
IncBtnFlag	BtnFlags,0	, ML_ChkBtns
Init_ADC ^	03E9 	start
LATA	010C 	start, TryState3
LED2Flag	BtnFlags,5	ConfigLEDs, SetDestServo, SDS1_CmdNormal, S1StartServo
LED2_ContinueFlashes ^	003C 	LED2_DoUpdate
LED2_DoUpdate ^	0031 	SystemBlink_end
LED2_FlashCount	002B 	LED2_DoUpdate, LED2_ContinueFlashes
LED2_FlashTime	0023 	LED2_ContinueFlashes, start, SetLED2_W_Flashes, SetLED2_ON
LED2_Flashes	002A 	LED2_DoUpdate, start, SetLED2_W_Flashes, SetLED2_ON
LED2_PeriodTime	0022 	LED2_DoUpdate, start, SetLED2_W_Flashes, SetLED2_ON
LED2_Ticks	0027 	SystemBlink_end, LED2_DoUpdate, LED2_ContinueFlashes
LED3Flag	BtnFlags,6	ML_LED2_End, SDS1_End, SDS2_CmdNormal, S2StartServo
LED3_ContinueFlashes ^	0052 	LED3_DoUpdate
LED3_DoUpdate ^	0047 	IRQ_LED2_End
LED3_FlashCount	002D 	LED3_DoUpdate, LED3_ContinueFlashes
LED3_FlashTime	0025 	LED3_ContinueFlashes, start, SetLED3_W_Flashes, SetLED3_ON
LED3_Flashes	002C 	LED3_DoUpdate, start, SetLED3_W_Flashes, SetLED3_ON
LED3_PeriodTime	0024 	LED3_DoUpdate, start, SetLED3_W_Flashes, SetLED3_ON
LED3_Ticks	0028 	IRQ_LED2_End, LED3_DoUpdate, LED3_ContinueFlashes
LEDErrorTime	000A 	State3_BlinkError
LEDFlashTime	0014 	start, SetLED2_W_Flashes, SetLED3_W_Flashes
LEDTIME	0064 	start, TryState7, SetLED2_W_Flashes, SetLED3_W_Flashes
LED_Blinks	0029 	, SystemBlink_Blinking, DoStateN, TryState2, State3_BlinkError, TryState4
		TryState5, TryState6, TryState7, BlinkBattVolts
LED_Ticks	0026 	
LED_Time	0021 	, start, DoStateN, State3_BlinkError, TryState5, TryState7, BlinkBattVolts
LastRAMParam	SysFlags	CopyToRam_L1, SaveParams_L1
ML_Btns_Dec ^	0127 	ML_ChkBtns
ML_Btns_End ^	0137 	MainLoop, ML_ChkBtns, ML_Btns_Inc, ML_Btns_Dec
ML_Btns_Inc ^	011C 	ML_ChkBtns
ML_Btns_Save ^	0134 	ML_Btns_Dec
ML_ChkBtns ^	0116 	MainLoop
ML_LED2_End ^	0225 	ConfigLEDs, ML_LED2_NotOn
ML_LED2_Flash ^	0223 	ML_LED2_NotOn
ML_LED2_NotOn ^	021F 	ConfigLEDs
ML_LED3_End ^	022F 	ML_LED2_End, ML_LED3_NotOn
ML_LED3_Flash ^	022D 	ML_LED3_NotOn
ML_LED3_NotOn ^	0229 	ML_LED2_End
ML_SkipBtns ^	0138 	MainLoop
MS1_1 ^	0260 	MoveServo1
MS1_End ^	028F 	MoveServo1
MS1_Move_It_Dest ^	0285 	MS1_1, MS1_Move_It_Neg
MS1_Move_It_Neg ^	027D 	MS1_1
RocketServo2.asm   X-Ref Table                                           Page: 29
/Users/davidflynn/Projects/Rocket-Servo/Firmware RS2 Rev nc/

MS1_Move_It_New ^	0278 	MS1_Move_It_Neg
MS1_Move_It_Now ^	0289 	MoveServo1, MS1_Move_It_New
MS2_1 ^	02A2 	MoveServo2
MS2_End ^	02D1 	MoveServo2
MS2_Move_It_Dest ^	02C7 	MS2_1, MS2_Move_It_Neg
MS2_Move_It_Neg ^	02BF 	MS2_1
MS2_Move_It_New ^	02BA 	MS2_Move_It_Neg
MS2_Move_It_Now ^	02CB 	MoveServo2, MS2_Move_It_New
MainLoop ^	010A 	ML_SkipBtns
MinBattVolts	00E8 	BlinkBattVolts
MinPeakCurrent	0014 	HandleState2_4
MoveActiveToCenter ^	031D 	ML_ChkBtns
MoveServo1 ^	024E 	ML_SkipBtns
MoveServo2 ^	0290 	ML_SkipBtns
NOT_WPUEN	0007 	start
NewSWData	BtnFlags,4	, SetDestServo
OPTION_REG	0095 	start
OSCCON	0099 	start
OSCCON_Value	0072 	start
PCLATH	000A 	
PEIE	0006 	start
PIE1	0091 	start, Init_ADC
PIE2	0092 	start
PIR1	0011 	, IRQ_2, IRQ_ADC_Return, IRQ_Servo1_X, Init_ADC, IRQ_ADC
PIR2	0012 	IRQ_Servo1_End, IRQ_Servo2_X
PORTA	000C 	, start
PORTB	000D 	, start, SetDestServo, SDS1_End
PR2	001B 	start
PR2_Value	007D 	start
PS0	0000 	start
PS1	0001 	start
PS2	0002 	start
PSA	0003 	start
Param77	0077 	MS1_1, MS1_Move_It_Neg, MS2_1, MS2_Move_It_Neg, Param7D_LE_Param79
		SetTrue, DelayWuS, DelayWuS_Loop
Param78	0078 	MoveServo1, MS1_1, MoveServo2, MS2_1, Param7D_LE_Param79
Param79	0079 	MS1_1, MS2_1, Param7D_LE_Param79
Param7C	007C 	ML_Btns_Inc, ML_Btns_Dec, BlinkBattVolts, MS1_1, MS1_Move_It_New, MS1_Move_It_Neg
		MS1_Move_It_Now, MS2_1, MS2_Move_It_New, MS2_Move_It_Neg, MS2_Move_It_Now, MoveActiveToCenter
		S1Copy7CToSig, S1Copy7CToSig_1, S2Copy7CToSig, S2Copy7CToSig_1, S1CopyTempToDest
		S2CopyTempToDest, S1CopyPosToTemp, S1CopyPos2ToTemp, S2CopyPosToTemp, S2CopyPos2ToTemp
		S1CopyTempToPos, S1CopyTempToPos2, S2CopyTempToPos, S2CopyTempToPos2, GetPeakCurrect
		S2StartServo_End, S1SetDestAsCur, S2SetDestAsCur, ClampInt, ClampInt_1, ClampInt_tooLow
		ClampInt_tooHigh, Param7D_LE_Param79
Param7D	007D 	ML_Btns_Inc, ML_Btns_Dec, BlinkBattVolts, MS1_1, MS1_Move_It_New, MS1_Move_It_Neg
		MS1_Move_It_Now, MS2_1, MS2_Move_It_New, MS2_Move_It_Neg, MS2_Move_It_Now, MoveActiveToCenter
		S1Copy7CToSig, S1Copy7CToSig_1, S2Copy7CToSig, S2Copy7CToSig_1, S1CopyTempToDest
		S2CopyTempToDest, S1CopyPosToTemp, S1CopyPos2ToTemp, S2CopyPosToTemp, S2CopyPos2ToTemp
		S1CopyTempToPos, S1CopyTempToPos2, S2CopyTempToPos, S2CopyTempToPos2, GetPeakCurrect
		S2StartServo_End, S1SetDestAsCur, S2SetDestAsCur, ClampInt, ClampInt_1, ClampInt_tooLow
		ClampInt_tooHigh, Param7D_LE_Param79
Param7D_LE_Param79 ^	04B1 	MS1_1, MS1_Move_It_Neg, MS2_1, MS2_Move_It_Neg
Param7F	007F 	ClearRam, ClearRam_2, ClearRam_L2
PeakCurrent	00AA 	HandleState2_4, ClearPeakCurrent, GetPeakCurrect
PortADDRBits	0067 	start
PortAValue	0000 	start
PortBDDRBits	00FE 	start
PortBValue	0000 	start
RD	0000 	EERead
S1Active	BtnFlags,2	MainLoop, SetDestServo, SDS1_End, CopyTempToDest, CopyPosToTemp
		CopyTempToPos
S1CalcdDwell	02A3 	IRQ_Servo1_1
S1CalcdDwellH	02A4 	IRQ_Servo1_1
S1CmdDebounce	0051 	SetDestServo, SDS1_Rev_Debounce, SDS1_CmdNormal, SDS1_Norm_Debounce
S1CmdInputBit	PORTB,1	SetDestServo
S1Copy7CToSig ^	0324 	MS1_Move_It_Now, S1StartServo
S1Copy7CToSig_1 ^	032E 	S1Copy7CToSig, S1Copy7CToSig_1
S1CopyPos2ToDest ^	0357 	S1CopyPosToDest
S1CopyPos2ToTemp ^	037D 	S1CopyPosToTemp
S1CopyPosToDest ^	034E 	SDS1_Move_It, S1StartServo
S1CopyPosToTemp ^	0374 	CopyPosToTemp
S1CopyTempToDest ^	0363 	CopyTempToDest
S1CopyTempToPos ^	0397 	CopyTempToPos
S1CopyTempToPos2 ^	03A0 	S1CopyTempToPos
S1CurPos	0040 	MoveServo1, MS1_1, MS1_Move_It_New, MS1_Move_It_Dest, MS1_Move_It_Now
		S2StartServo_End, S1SetDestAsCur
S1CurPosIsDest	ServoFlags,2	HandleState2, HandleState2_2, HandleState2_3, HandleState2_4
		MoveServo1
S1Dest	003E 	HandleState2, HandleState2_2, HandleState2_3, MoveServo1, MS1_1, MS1_Move_It_Dest
		S1CopyPosToDest, S1CopyPos2ToDest, S1CopyTempToDest, S2StartServo_End, S1SetDestAsCur
S1Flags	02A2 	IRQ_ADC_Return, start, SetDestServo, SDS1_CmdNormal, S1CopyPosToDest
		S1CopyPosToTemp, S1CopyTempToPos, S1StartServo
S1Found	ServoFlags,0	HandleState2_4_1, ML_LED2_NotOn
S1InPosShutdown	SysFlags,1	IRQ_Servo1_1, IRQ_Servo1_OL
S1InPosition	SysFlags,2	IRQ_Servo1_1, IRQ_Servo1_OL, State2_Waiting, HandleState2
		HandleState2_2, HandleState2_3, MoveServo1, MS1_1, S1StartServo
S1Position1	0048 	HandleState2, HandleState2_2, HandleState2_3, S1CopyPosToDest, S1CopyPosToTemp
		S1CopyTempToPos, CopyToRam, SaveParams
S1Position2	004A 	S1CopyPos2ToDest, S1CopyPos2ToTemp, S1CopyTempToPos2
S1PulseSent	SysFlags,0	IRQ_ADC_Return, MoveServo1
S1SMRevFlag	S1Flags,5	SetDestServo, SDS1_CmdNormal, S1CopyPosToDest, S1CopyPosToTemp
		S1CopyTempToPos, S1StartServo
S1ServoOff	S1Flags,4	IRQ_ADC_Return, start, S1StartServo
S1SetDestAsCur ^	0480 	S1StartServo
S1SigOutTime	02A0 	IRQ_Servo1_1, S1Copy7CToSig, S1Copy7CToSig_1
S1SigOutTimeH	02A1 	S1Copy7CToSig, S1Copy7CToSig_1
S1StartServo ^	0430 	start
S1StartServo_End ^	044C 	S1StartServo
S2Active	BtnFlags,3	MainLoop, SetDestServo, SDS1_End, CopyTempToDest, CopyPosToTemp
RocketServo2.asm   X-Ref Table                                           Page: 30
/Users/davidflynn/Projects/Rocket-Servo/Firmware RS2 Rev nc/

		CopyTempToPos
S2CalcdDwell	02A8 	IRQ_Servo2_1
S2CalcdDwellH	02A9 	IRQ_Servo2_1
S2CmdDebounce	0052 	SDS1_End, SDS2_Rev_Debounce, SDS2_CmdNormal, SDS2_Norm_Debounce
S2CmdInputBit	PORTB,2	SDS1_End
S2Copy7CToSig ^	0339 	MS2_Move_It_Now, S2StartServo
S2Copy7CToSig_1 ^	0343 	S2Copy7CToSig, S2Copy7CToSig_1
S2CopyPos2ToDest ^	03BE 	S2CopyPosToDest
S2CopyPos2ToTemp ^	038C 	S2CopyPosToTemp
S2CopyPosToDest ^	03B5 	SDS2_Move_It, S2StartServo
S2CopyPosToTemp ^	0383 	CopyPosToTemp
S2CopyTempToDest ^	0369 	CopyTempToDest
S2CopyTempToPos ^	03A6 	CopyTempToPos
S2CopyTempToPos2 ^	03AF 	S2CopyTempToPos
S2CurPos	0044 	MoveServo2, MS2_1, MS2_Move_It_New, MS2_Move_It_Dest, MS2_Move_It_Now
		S2StartServo_End, S2SetDestAsCur
S2CurPosIsDest	ServoFlags,3	MoveServo2
S2Dest	0042 	MoveServo2, MS2_1, MS2_Move_It_Dest, S2CopyTempToDest, S2CopyPosToDest
		S2CopyPos2ToDest, S2StartServo_End, S2SetDestAsCur
S2Flags	02A7 	IRQ_Servo1_End, start, SDS1_End, SDS2_CmdNormal, S2CopyPosToTemp, S2CopyTempToPos
		S2CopyPosToDest, S2StartServo
S2Found	ServoFlags,1	ML_LED3_NotOn
S2InPosShutdown	SysFlags,5	IRQ_Servo2_1, IRQ_Servo2_OL
S2InPosition	SysFlags,6	IRQ_Servo2_1, IRQ_Servo2_OL, State2_Waiting, MoveServo2, MS2_1
		S2StartServo
S2Position1	004C 	S2CopyPosToTemp, S2CopyTempToPos, S2CopyPosToDest
S2Position2	004E 	S2CopyPos2ToTemp, S2CopyTempToPos2, S2CopyPos2ToDest
S2PulseSent	SysFlags,4	IRQ_Servo1_End, MoveServo2
S2SMRevFlag	S2Flags,5	SDS1_End, SDS2_CmdNormal, S2CopyPosToTemp, S2CopyTempToPos
		S2CopyPosToDest, S2StartServo
S2ServoOff	S2Flags,4	IRQ_Servo1_End, start, S2StartServo
S2SetDestAsCur ^	0488 	S2StartServo
S2SigOutTime	02A5 	IRQ_Servo2_1, S2Copy7CToSig, S2Copy7CToSig_1
S2SigOutTimeH	02A6 	S2Copy7CToSig, S2Copy7CToSig_1
S2StartServo ^	044E 	start
S2StartServo_End ^	046A 	S2StartServo
SDS1_CmdNormal ^	02E9 	SetDestServo
SDS1_End ^	02F9 	SDS1_Rev_Debounce, SDS1_Norm_Debounce
SDS1_Move_It ^	02F8 	SetDestServo, SDS1_CmdNormal
SDS1_Norm_Debounce ^	02F6 	SDS1_CmdNormal
SDS1_Rev_Debounce ^	02E7 	SetDestServo
SDS2_CmdNormal ^	030C 	SDS1_End
SDS2_End ^	031C 	SDS2_Rev_Debounce, SDS2_Norm_Debounce
SDS2_Move_It ^	031B 	SDS1_End, SDS2_CmdNormal
SDS2_Norm_Debounce ^	0319 	SDS2_CmdNormal
SDS2_Rev_Debounce ^	030A 	SDS1_End
STATUS	0003 	, SystemBlink_end, LED2_DoUpdate, IRQ_LED2_End, LED3_DoUpdate, MainLoop
		ML_SkipBtns, DoStateN, TryState2, State2_Waiting, TryState3, TryState4, TryState5
		TryState6, TryState7, HandleState2, HandleState2_2, HandleState2_3, HandleState2_4
		BlinkBattVolts, MoveServo1, MoveServo2, SetDestServo, SDS1_CmdNormal, SDS1_End
		SDS2_CmdNormal, S1Copy7CToSig, S2Copy7CToSig, GetPeakCurrect, ClampInt, ClampInt_1
		Param7D_LE_Param79, CopyToRam_L1, SaveParams_L1, DecTimer
SampleTimer ^	0411 	IRQ_ADC
SaveParams ^	04EC 	ML_Btns_Save
SaveParams_L1 ^	04F2 	SaveParams_L1
Servo1ActiveTimerHi	0035 	SetDestServo, SDS1_CmdNormal
Servo1ActiveTimerLo	0034 	SetDestServo, SDS1_CmdNormal
Servo1LEDTrisBit	TRISB,4	, LED2_ContinueFlashes
Servo1MoveTimerHi	0033 	State2_Waiting, MoveServo1, MS1_1, S1StartServo
Servo1MoveTimerLo	0032 	State2_Waiting, MoveServo1, MS1_1, S1StartServo
Servo2ActiveTimerHi	003B 	SDS1_End, SDS2_CmdNormal
Servo2ActiveTimerLo	003A 	SDS1_End, SDS2_CmdNormal
Servo2LEDTrisBit	TRISB,3	, LED3_ContinueFlashes
Servo2MoveTimerHi	0039 	State2_Waiting, MoveServo2, MS2_1, S2StartServo
Servo2MoveTimerLo	0038 	State2_Waiting, MoveServo2, MS2_1, S2StartServo
ServoFlags	0047 	HandleState2, HandleState2_2, HandleState2_3, HandleState2_4, HandleState2_4_1
		ML_LED2_NotOn, ML_LED3_NotOn, MoveServo1, MoveServo2
ServoMoveTime	012C 	MS1_1, MS2_1, S1StartServo, S2StartServo
SetDestServo ^	02D2 	ML_SkipBtns
SetLED2_OFF ^	0230 	start, ML_LED2_NotOn
SetLED2_ON ^	0239 	ConfigLEDs
SetLED2_W_Flashes ^	0231 	ML_LED2_Flash
SetLED3_OFF ^	023F 	start, ML_LED3_NotOn
SetLED3_ON ^	0248 	ML_LED2_End
SetLED3_W_Flashes ^	0240 	ML_LED3_Flash
SetTrue ^	04BE 	Param7D_LE_Param79
SlewChangeRate	0040 	MS1_1, MS1_Move_It_Neg, MS2_1, MS2_Move_It_Neg
SmallServoMove	0064 	HandleState2, HandleState2_2
State	003C 	start, MainLoop, ML_SkipBtns, DoStateN, TryState2, TryState3, State3_BlinkError
		TryState4, TryState5, TryState6, TryState7, TryState8, DoNextState
State2	003D 	DoStateN, TryState3, TryState7, HandleState2, DoNextState2, HandleState2_2
		HandleState2_3, HandleState2_4, HandleState2_5
State2_Waiting ^	0153 	State2_Waiting
State3_BlinkError ^	0176 	TryState3
SysFlags	0050 	IRQ_ADC_Return, IRQ_Servo1_1, IRQ_Servo1_OL, IRQ_Servo1_End, IRQ_Servo2_1
		IRQ_Servo2_OL, State2_Waiting, TryState3, HandleState2, HandleState2_2, HandleState2_3
		BlinkBattVolts, MoveServo1, MS1_1, MoveServo2, MS2_1, S1StartServo, S2StartServo
		CopyToRam_L1, SaveParams_L1
SysLEDTrisBit	TRISA,6	, SystemBlink_on
SystemBlink_Blinking ^	0028 	
SystemBlink_end ^	002B 	
SystemBlink_on ^	0029 	
T1CON	0018 	start
T1CON_Val	0001 	start
T1GCON	0019 	start
T2CON	001C 	start
T2CON_Value	004E 	start
TMR0CS	0005 	start
TMR1GE	0007 	start
RocketServo2.asm   X-Ref Table                                           Page: 31
/Users/davidflynn/Projects/Rocket-Servo/Firmware RS2 Rev nc/

TMR1H	0017 	S1StartServo, S2StartServo
TMR1L	0016 	S1StartServo, S2StartServo
TMR2IE	0001 	start
TMR2IF	0001 	
TRISA	008C 	, SystemBlink_on, start
TRISB	008D 	, LED2_ContinueFlashes, LED3_ContinueFlashes, start
Timer1Hi	0031 	State2_Waiting, TryState3, State3_BlinkError, TryState4, TryState5
		TryState6, TryState7, DecTimer1, DecTimer
Timer1Lo	0030 	State2_Waiting, TryState3, State3_BlinkError, TryState4, TryState5
		TryState6, TryState7, DecTimer
Timer2Hi	0033 	DecTimer2, DecTimer
Timer2Lo	0032 	DecTimer
Timer3Hi	0035 	DecTimer3, DecTimer
Timer3Lo	0034 	DecTimer
Timer4Hi	0037 	MainLoop, DecTimer4, DecTimer
Timer4Lo	0036 	MainLoop, ML_Btns_Inc, ML_Btns_Dec, DecTimer
Timer5Hi	0039 	
Timer6Hi	003B 	
TryState2 ^	014D 	DoStateN
TryState3 ^	0164 	TryState2
TryState4 ^	0181 	TryState3
TryState5 ^	018C 	TryState4
TryState6 ^	0199 	TryState5
TryState7 ^	01A4 	TryState6
TryState8 ^	01B3 	TryState7
UpdateANData_1 ^	0425 	SampleTimer
UpdateANData_End ^	042F 	UpdateANData_1
UseEEParams	0001 	ClearRam, CopyToRam
W	0000 	, LED2_DoUpdate, LED2_ContinueFlashes, LED3_DoUpdate, LED3_ContinueFlashes
		IRQ_Servo1_1, IRQ_Servo2_1, MainLoop, DoStateN, TryState2, State2_Waiting, TryState3
		TryState4, TryState5, TryState6, TryState7, HandleState2, HandleState2_2, HandleState2_3
		HandleState2_4, BlinkBattVolts, MoveServo1, MS1_1, MS1_Move_It_New, MS1_Move_It_Dest
		MS1_Move_It_Now, MoveServo2, MS2_1, MS2_Move_It_New, MS2_Move_It_Dest, MS2_Move_It_Now
		SetDestServo, SDS1_CmdNormal, SDS1_End, SDS2_CmdNormal, S1Copy7CToSig, S1Copy7CToSig_1
		S2Copy7CToSig, S2Copy7CToSig_1, S1CopyPosToDest, S1CopyPos2ToDest, S1CopyTempToDest
		S2CopyTempToDest, S1CopyPosToTemp, S1CopyPos2ToTemp, S2CopyPosToTemp, S2CopyPos2ToTemp
		S1CopyTempToPos, S1CopyTempToPos2, S2CopyTempToPos, S2CopyTempToPos2, S2CopyPosToDest
		S2CopyPos2ToDest, GetIdleCurrent, GetPeakCurrect, IRQ_ADC, IRQ_ADC_AN1, SampleTimer
		UpdateANData_1, S1StartServo, S2StartServo, S1SetDestAsCur, S2SetDestAsCur, ClampInt
		ClampInt_1, Param7D_LE_Param79, CopyToRam_L1, SaveParams_L1, DecTimer, EERead, EEWrite
WDTCON	0097 	start
WR	0001 	EEWrite, EEWriteLoop
WREN	0002 	EEWrite, EEWriteLoop
Z	0002 	, SystemBlink_end, LED2_DoUpdate, IRQ_LED2_End, LED3_DoUpdate, MainLoop, ML_SkipBtns
		DoStateN, TryState2, State2_Waiting, TryState3, TryState4, TryState5, TryState6
		TryState7, HandleState2, HandleState2_2, HandleState2_3, HandleState2_4, MoveServo1
		MoveServo2, SetDestServo, SDS1_CmdNormal, SDS1_End, SDS2_CmdNormal, S1Copy7CToSig
		S2Copy7CToSig, ClampInt, ClampInt_1, Param7D_LE_Param79, CopyToRam_L1, SaveParams_L1
		DecTimer
kDefaultPosition1	0E10 	EEWriteLoop
kDefaultPosition2	0898 	EEWriteLoop
kInPosShutdown	0022 	EEWriteLoop
kMaxPulseWidth	1068 	ClampInt, ClampInt_tooHigh
kMidPulseWidth	0BB8 	MoveActiveToCenter, S2StartServo_End
kMinPulseWidth	0708 	ClampInt_1, ClampInt_tooLow
kServoDwellTime	7D00 	IRQ_Servo1_1, IRQ_Servo1_OL, IRQ_Servo2_1, IRQ_Servo2_OL
nvFirstParamByte	nvPosition1Lo	EEWriteLoop, CopyToRam, SaveParams
nvLastParamByte	nvSysFlags	EEWriteLoop
nvPosition1Hi	0001 	EEWriteLoop
nvPosition1Lo	0000 	EEWriteLoop, CopyToRam, SaveParams
nvPosition2Hi	0003 	EEWriteLoop
nvPosition2Lo	0002 	EEWriteLoop
nvPosition3Hi	0005 	EEWriteLoop
nvPosition3Lo	0004 	EEWriteLoop
nvPosition4Hi	0007 	EEWriteLoop
nvPosition4Lo	0006 	EEWriteLoop
nvSysFlags	0008 	EEWriteLoop
oldCode	0000 	ClearRam, DecTimer
start ^	00B8 	
 

X-Ref Table (The UnCalled)
Delay100uS !	0521 	
Delay10uS !	051F 	
Delay40uS !	0523 	
EEReadW !	052A 	
EEWriteW !	0534 	
IRQ_LED2_ON !	003F 	
IRQ_LED3_ON !	0055 	
LastState !	01B3 	
S1CopyPos1ToDest !	0351 	
S1CopyPos1ToTemp !	0377 	
S1CopyTempToPos1 !	039A 	
S1SetMiddlePosition !	046C 	
S2CopyPos1ToDest !	03B8 	
S2CopyPos1ToTemp !	0386 	
S2CopyTempToPos1 !	03A9 	
S2SetMiddlePosition !	0476 	
SystemBlink_1 !	001E 	
TestT1_Zero !	051B 	
TestT2_Zero !	0517 	
TestT3_Zero !	0513 	
TestT4_Zero !	050F 	
UpdateANData !	041A 	
 

Memory Usage Map ('X' = Used, '-' = Unused)
 
0000  : XXX-XXXXXXXXXXXX XXXXXXXXXXXXXXXX XXXXXXXXXXXXXXXX XXXXXXXXXXXXXXXX
RocketServo2.asm   Memory Usage Map                                      Page: 32
/Users/davidflynn/Projects/Rocket-Servo/Firmware RS2 Rev nc/

0040  : XXXXXXXXXXXXXXXX XXXXXXXXXXXXXXXX XXXXXXXXXXXXXXXX XXXXXXXXXXXXXXXX
0080  : XXXXXXXXXXXXXXXX XXXXXXXXXXXXXXXX XXXXXXXXXXXXXXXX XXXXXXXXXXXXXXXX
00C0  : XXXXXXXXXXXXXXXX XXXXXXXXXXXXXXXX XXXXXXXXXXXXXXXX XXXXXXXXXXXXXXXX
0100  : XXXXXXXXXXXXXXXX XXXXXXXXXXXXXXXX XXXXXXXXXXXXXXXX XXXXXXXXXXXXXXXX
0140  : XXXXXXXXXXXXXXXX XXXXXXXXXXXXXXXX XXXXXXXXXXXXXXXX XXXXXXXXXXXXXXXX
0180  : XXXXXXXXXXXXXXXX XXXXXXXXXXXXXXXX XXXXXXXXXXXXXXXX XXXXXXXXXXXXXXXX
01C0  : XXXXXXXXXXXXXXXX XXXXXXXXXXXXXXXX XXXXXXXXXXXXXXXX XXXXXXXXXXXXXXXX
0200  : XXXXXXXXXXXXXXXX XXXXXXXXXXXXXXXX XXXXXXXXXXXXXXXX XXXXXXXXXXXXXXXX
0240  : XXXXXXXXXXXXXXXX XXXXXXXXXXXXXXXX XXXXXXXXXXXXXXXX XXXXXXXXXXXXXXXX
0280  : XXXXXXXXXXXXXXXX XXXXXXXXXXXXXXXX XXXXXXXXXXXXXXXX XXXXXXXXXXXXXXXX
02C0  : XXXXXXXXXXXXXXXX XXXXXXXXXXXXXXXX XXXXXXXXXXXXXXXX XXXXXXXXXXXXXXXX
0300  : XXXXXXXXXXXXXXXX XXXXXXXXXXXXXXXX XXXXXXXXXXXXXXXX XXXXXXXXXXXXXXXX
0340  : XXXXXXXXXXXXXXXX XXXXXXXXXXXXXXXX XXXXXXXXXXXXXXXX XXXXXXXXXXXXXXXX
0380  : XXXXXXXXXXXXXXXX XXXXXXXXXXXXXXXX XXXXXXXXXXXXXXXX XXXXXXXXXXXXXXXX
03C0  : XXXXXXXXXXXXXXXX XXXXXXXXXXXXXXXX XXXXXXXXXXXXXXXX XXXXXXXXXXXXXXXX
0400  : XXXXXXXXXXXXXXXX XXXXXXXXXXXXXXXX XXXXXXXXXXXXXXXX XXXXXXXXXXXXXXXX
0440  : XXXXXXXXXXXXXXXX XXXXXXXXXXXXXXXX XXXXXXXXXXXXXXXX XXXXXXXXXXXXXXXX
0480  : XXXXXXXXXXXXXXXX XXXXXXXXXXXXXXXX XXXXXXXXXXXXXXXX XXXXXXXXXXXXXXXX
04C0  : XXXXXXXXXXXXXXXX XXXXXXXXXXXXXXXX XXXXXXXXXXXXXXXX XXXXXXXXXXXXXXXX
0500  : XXXXXXXXXXXXXXXX XXXXXXXXXXXXXXXX XXXXXXXXXXXXXXXX XXXXXXXXXXXXXXXX
0540  : XXXXXXXXXXXXX--- ---------------- ---------------- ----------------
 
Program Memory Words Used:1356
Program Memory Words Free:6836
 
UserID
8000  :XXXX
 
Config
8007  :XX
 
EEPROM
F000  : XXXXXXXXX------- ---------------- ---------------- ----------------
 
Data EEPROM Bytes Used:9
Data EEPROM Bytes Free:247
